$VAR1 = {
          'ABI_DUMPER_VERSION' => '1.4',
          'ABI_DUMP_VERSION' => '3.5',
          'Arch' => 'x86_64',
          'GccVersion' => '15.2.1',
          'Headers' => {
                         'types.hpp' => 1
                       },
          'Language' => 'C++',
          'LibraryName' => 'libpldmplus.so.0.14.0',
          'LibraryVersion' => '0.14.0',
          'MissedOffsets' => '1',
          'MissedRegs' => '1',
          'NameSpaces' => {
                            '__gnu_cxx' => 1,
                            '__gnu_cxx::__ops' => 1,
                            'pldm::fw_update' => 1,
                            'pldm::utils' => 1,
                            'std' => 1,
                            'std::__cmp_cat' => 1,
                            'std::__cxx11' => 1,
                            'std::__detail' => 1,
                            'std::__exception_ptr' => 1,
                            'std::__format' => 1,
                            'std::__rb_tree' => 1,
                            'std::__unicode' => 1,
                            'std::__unicode::__v16_0_0' => 1,
                            'std::ranges' => 1,
                            'std::ranges::_Cpo' => 1,
                            'std::ranges::__access' => 1,
                            'std::ranges::__detail' => 1
                          },
          'Needed' => {
                        'libc.so.6' => 1,
                        'libgcc_s.so.1' => 1,
                        'libm.so.6' => 1,
                        'libpldm.so.0' => 1,
                        'libstdc++.so.6' => 1
                      },
          'PublicABI' => '1',
          'Sources' => {},
          'SymbolInfo' => {
                            '966' => {
                                       'Data' => 1,
                                       'Header' => 'types.hpp',
                                       'MnglName' => '_ZNSt6ranges4_Cpo4dataE',
                                       'NameSpace' => 'std::ranges::_Cpo',
                                       'Return' => '1584',
                                       'ShortName' => 'data'
                                     },
                            '90411' => {
                                         'Header' => 'types.hpp',
                                         'InLine' => 2,
                                         'MnglName' => '_ZNSt9__unicodeeqENS_13_Utf_iteratorIcDiPKcS2_NS_5_ReplEEES2_',
                                         'NameSpace' => 'std::__unicode',
                                         'Param' => {
                                                      '0' => {
                                                               'name' => '__lhs',
                                                               'type' => '87733'
                                                             },
                                                      '1' => {
                                                               'name' => '__rhs',
                                                               'type' => '155794'
                                                             }
                                                    },
                                         'Return' => '143846',
                                         'ShortName' => 'operator=='
                                       },
                            '90442' => {
                                         'Header' => 'types.hpp',
                                         'InLine' => 2,
                                         'MnglName' => '_ZNSt9__unicode13_Utf_iteratorIDicPKDiS2_NS_5_ReplEEFeqES4_S4_Qoo16forward_iteratorIT1_ErQS5__Xnefp_fp_E',
                                         'NameSpace' => 'std::__unicode',
                                         'Param' => {
                                                      '0' => {
                                                               'name' => '__lhs',
                                                               'type' => '89072'
                                                             },
                                                      '1' => {
                                                               'name' => '__rhs',
                                                               'type' => '89072'
                                                             }
                                                    },
                                         'Return' => '143846',
                                         'ShortName' => 'operator=='
                                       },
                            '90473' => {
                                         'Header' => 'types.hpp',
                                         'InLine' => 2,
                                         'MnglName' => '_ZNSt9__unicode13_Utf_iteratorIcDiPKcS2_NS_5_ReplEEFeqES4_S4_Qoo16forward_iteratorIT1_ErQS5__Xnefp_fp_E',
                                         'NameSpace' => 'std::__unicode',
                                         'Param' => {
                                                      '0' => {
                                                               'name' => '__lhs',
                                                               'type' => '87733'
                                                             },
                                                      '1' => {
                                                               'name' => '__rhs',
                                                               'type' => '87733'
                                                             }
                                                    },
                                         'Return' => '143846',
                                         'ShortName' => 'operator=='
                                       },
                            '143779' => {
                                          'Header' => 'types.hpp',
                                          'InLine' => 2,
                                          'MnglName' => '_ZSteqSt15strong_orderingNSt9__cmp_cat8__unspecE',
                                          'NameSpace' => 'std',
                                          'Param' => {
                                                       '0' => {
                                                                'name' => '__v',
                                                                'type' => '6513'
                                                              },
                                                       '1' => {
                                                                'name' => 'p2',
                                                                'type' => '6297'
                                                              }
                                                     },
                                          'Return' => '143846',
                                          'ShortName' => 'operator=='
                                        },
                            '245682' => {
                                          'Artificial' => 1,
                                          'Class' => '163902',
                                          'Constructor' => 1,
                                          'Header' => 'types.hpp',
                                          'InLine' => 1,
                                          'Line' => '80',
                                          'MnglName' => '_ZN4pldm9fw_update18ComponentImageInfoC2ERKS1_',
                                          'Param' => {
                                                       '0' => {
                                                                'name' => 'this',
                                                                'type' => '165662'
                                                              },
                                                       '1' => {
                                                                'name' => 'p1',
                                                                'type' => '165682'
                                                              }
                                                     },
                                          'ShortName' => 'ComponentImageInfo'
                                        },
                            '245683' => {
                                          'Artificial' => 1,
                                          'Class' => '163902',
                                          'Constructor' => 1,
                                          'Header' => 'types.hpp',
                                          'InLine' => 1,
                                          'Line' => '80',
                                          'MnglName' => '_ZN4pldm9fw_update18ComponentImageInfoC1ERKS1_',
                                          'Param' => {
                                                       '0' => {
                                                                'name' => 'this',
                                                                'type' => '165662'
                                                              },
                                                       '1' => {
                                                                'name' => 'p1',
                                                                'type' => '165682'
                                                              }
                                                     },
                                          'ShortName' => 'ComponentImageInfo'
                                        },
                            '246815' => {
                                          'Artificial' => 1,
                                          'Class' => '164258',
                                          'Constructor' => 1,
                                          'Header' => 'types.hpp',
                                          'InLine' => 1,
                                          'Line' => '109',
                                          'MnglName' => '_ZN4pldm9fw_update22FirmwareDeviceIDRecordC2ERKS1_',
                                          'Param' => {
                                                       '0' => {
                                                                'name' => 'this',
                                                                'type' => '166349'
                                                              },
                                                       '1' => {
                                                                'name' => 'p1',
                                                                'type' => '166364'
                                                              }
                                                     },
                                          'ShortName' => 'FirmwareDeviceIDRecord'
                                        },
                            '246816' => {
                                          'Artificial' => 1,
                                          'Class' => '164258',
                                          'Constructor' => 1,
                                          'Header' => 'types.hpp',
                                          'InLine' => 1,
                                          'Line' => '109',
                                          'MnglName' => '_ZN4pldm9fw_update22FirmwareDeviceIDRecordC1ERKS1_',
                                          'Param' => {
                                                       '0' => {
                                                                'name' => 'this',
                                                                'type' => '166349'
                                                              },
                                                       '1' => {
                                                                'name' => 'p1',
                                                                'type' => '166364'
                                                              }
                                                     },
                                          'ShortName' => 'FirmwareDeviceIDRecord'
                                        }
                          },
          'SymbolVersion' => {},
          'Symbols' => {
                         'libpldmplus.so.0.14.0' => {
                                                      '_ZN9__gnu_cxx11char_traitsIcE2eqERKcS3_' => 1,
                                                      '_ZN9__gnu_cxx11char_traitsIcE4copyEPcPKcm' => 1,
                                                      '_ZN9__gnu_cxx11char_traitsIcE4findEPKcmRS2_' => 1,
                                                      '_ZN9__gnu_cxx11char_traitsIcE4moveEPcPKcm' => 1,
                                                      '_ZN9__gnu_cxx11char_traitsIcE6assignEPcmc' => 1,
                                                      '_ZN9__gnu_cxx11char_traitsIcE6lengthEPKc' => 1,
                                                      '_ZNKRSt8optionalINSt7__cxx1112basic_stringIcSt11char_traitsIcESaIcEEEEdeEv' => 1,
                                                      '_ZNKSt12_Base_bitsetILm1EE11_M_is_equalERKS0_' => 1,
                                                      '_ZNKSt12_Vector_baseISt6vectorImSaImEESaIS2_EE19_M_get_Tp_allocatorEv' => 1,
                                                      '_ZNKSt12_Vector_baseIhSaIhEE13get_allocatorEv' => 1,
                                                      '_ZNKSt12_Vector_baseIhSaIhEE19_M_get_Tp_allocatorEv' => 1,
                                                      '_ZNKSt12_Vector_baseImSaImEE19_M_get_Tp_allocatorEv' => 1,
                                                      '_ZNKSt12_Vector_baseItSaItEE19_M_get_Tp_allocatorEv' => 1,
                                                      '_ZNKSt14_Optional_baseINSt7__cxx1112basic_stringIcSt11char_traitsIcESaIcEEELb0ELb0EE13_M_is_engagedEv' => 1,
                                                      '_ZNKSt14_Optional_baseINSt7__cxx1112basic_stringIcSt11char_traitsIcESaIcEEELb0ELb0EE6_M_getEv' => 1,
                                                      '_ZNKSt16reverse_iteratorIPKNSt8__format6_Arg_tEE4baseEv' => 1,
                                                      '_ZNKSt16reverse_iteratorIPKNSt8__format6_Arg_tEEdeEv' => 1,
                                                      '_ZNKSt17basic_format_argsISt20basic_format_contextINSt8__format10_Sink_iterIcEEcEE7_M_typeEm' => 1,
                                                      '_ZNKSt17basic_string_viewIcSt11char_traitsIcEE17find_first_not_ofEcm' => 1,
                                                      '_ZNKSt17basic_string_viewIcSt11char_traitsIcEE3endEv' => 1,
                                                      '_ZNKSt17basic_string_viewIcSt11char_traitsIcEE4copyEPcmm' => 1,
                                                      '_ZNKSt17basic_string_viewIcSt11char_traitsIcEE4dataEv' => 1,
                                                      '_ZNKSt17basic_string_viewIcSt11char_traitsIcEE4findEcm' => 1,
                                                      '_ZNKSt17basic_string_viewIcSt11char_traitsIcEE4sizeEv' => 1,
                                                      '_ZNKSt17basic_string_viewIcSt11char_traitsIcEE5beginEv' => 1,
                                                      '_ZNKSt17basic_string_viewIcSt11char_traitsIcEE5emptyEv' => 1,
                                                      '_ZNKSt17basic_string_viewIcSt11char_traitsIcEE5frontEv' => 1,
                                                      '_ZNKSt17basic_string_viewIcSt11char_traitsIcEE6substrEmm' => 1,
                                                      '_ZNKSt17basic_string_viewIcSt11char_traitsIcEE7compareES2_' => 1,
                                                      '_ZNKSt17basic_string_viewIcSt11char_traitsIcEEixEm' => 1,
                                                      '_ZNKSt17integral_constantImLm12EEcvmEv' => 1,
                                                      '_ZNKSt17integral_constantImLm256EEcvmEv' => 1,
                                                      '_ZNKSt18_Rb_tree_node_base11_M_base_ptrEv' => 1,
                                                      '_ZNKSt19bad_expected_accessIvE4whatEv' => 1,
                                                      '_ZNKSt20basic_format_contextINSt8__format10_Sink_iterIcEEcE3argEm' => 1,
                                                      '_ZNKSt22_Optional_payload_baseINSt7__cxx1112basic_stringIcSt11char_traitsIcESaIcEEEE6_M_getEv' => 1,
                                                      '_ZNKSt26basic_format_parse_contextIcE3endEv' => 1,
                                                      '_ZNKSt26basic_format_parse_contextIcE5beginEv' => 1,
                                                      '_ZNKSt4lessIPKcEclES1_S1_' => 1,
                                                      '_ZNKSt4lessItEclERKtS2_' => 1,
                                                      '_ZNKSt4spanIcLm18446744073709551615EE3endEv' => 1,
                                                      '_ZNKSt4spanIcLm18446744073709551615EE4dataEv' => 1,
                                                      '_ZNKSt4spanIcLm18446744073709551615EE4sizeEv' => 1,
                                                      '_ZNKSt4spanIcLm18446744073709551615EE5beginEv' => 1,
                                                      '_ZNKSt4spanIcLm18446744073709551615EE5emptyEv' => 1,
                                                      '_ZNKSt4spanIcLm18446744073709551615EE5firstEm' => 1,
                                                      '_ZNKSt4spanIcLm18446744073709551615EE7subspanEmm' => 1,
                                                      '_ZNKSt5arrayIDiLm1EEixEm' => 1,
                                                      '_ZNKSt5arrayINSt8__format6_Arg_tELm4EE3endEv' => 1,
                                                      '_ZNKSt5arrayINSt8__format6_Arg_tELm4EE4dataEv' => 1,
                                                      '_ZNKSt5arrayINSt8__format6_Arg_tELm4EE4rendEv' => 1,
                                                      '_ZNKSt5arrayINSt8__format6_Arg_tELm4EE5beginEv' => 1,
                                                      '_ZNKSt5arrayINSt8__format6_Arg_tELm4EE6rbeginEv' => 1,
                                                      '_ZNKSt5arrayIcLm4EEixEm' => 1,
                                                      '_ZNKSt6bitsetILm16EEeqERKS0_' => 1,
                                                      '_ZNKSt6bitsetILm32EEeqERKS0_' => 1,
                                                      '_ZNKSt6ranges13__distance_fnclIRPKhS3_EENSt8__detail13__iter_traits15difference_typeEOT_T0_' => 1,
                                                      '_ZNKSt6ranges8__access4_EndclIRA1_KDiEEDaOT_' => 1,
                                                      '_ZNKSt6ranges8__access4_EndclIRNS_8subrangeIPKcS5_LNS_13subrange_kindE1EEEEEDaOT_' => 1,
                                                      '_ZNKSt6ranges8__access4_EndclIRSt17basic_string_viewIcSt11char_traitsIcEEEEDaOT_' => 1,
                                                      '_ZNKSt6ranges8__access4_EndclIRSt4spanIcLm18446744073709551615EEEEDaOT_' => 1,
                                                      '_ZNKSt6ranges8__access5_DataclIRNSt7__cxx1112basic_stringIcSt11char_traitsIcESaIcEEEEEDaOT_' => 1,
                                                      '_ZNKSt6ranges8__access5_SizeclIRNSt7__cxx1112basic_stringIcSt11char_traitsIcESaIcEEEEEDaOT_' => 1,
                                                      '_ZNKSt6ranges8__access6_BeginclIRA1_KDiEEDaOT_' => 1,
                                                      '_ZNKSt6ranges8__access6_BeginclIRNS_8subrangeIPKcS5_LNS_13subrange_kindE1EEEEEDaOT_' => 1,
                                                      '_ZNKSt6ranges8__access6_BeginclIRSt17basic_string_viewIcSt11char_traitsIcEEEEDaOT_' => 1,
                                                      '_ZNKSt6ranges8__access6_BeginclIRSt4spanIcLm18446744073709551615EEEEDaOT_' => 1,
                                                      '_ZNKSt6ranges8__access6_EmptyclIRKNS_8subrangeIPKcS5_LNS_13subrange_kindE1EEEEEbOT_' => 1,
                                                      '_ZNKSt6ranges8subrangeIPKcS2_LNS_13subrange_kindE1EE3endEv' => 1,
                                                      '_ZNKSt6ranges8subrangeIPKcS2_LNS_13subrange_kindE1EE5beginEv' => 1,
                                                      '_ZNKSt6ranges8subrangeIPKcS2_LNS_13subrange_kindE1EE5beginEvQ8copyableIT_E' => 1,
                                                      '_ZNKSt6ranges8subrangeIPKcS2_LNS_13subrange_kindE1EE5emptyEv' => 1,
                                                      '_ZNKSt6ranges9__copy_fnclIN9__gnu_cxx17__normal_iteratorIPcNSt4spanIcLm18446744073709551615EE10__iter_tagEEES8_NSt8__format10_Sink_iterIcEEEENS_13in_out_resultIT_T1_EESD_T0_SE_' => 1,
                                                      '_ZNKSt6ranges9__copy_fnclIRSt4spanIcLm18446744073709551615EENSt8__format10_Sink_iterIcEEEENS_13in_out_resultINSt13__conditionalIX14borrowed_rangeIT_EEE4typeIDTcl7__begincl7declvalIRSA_EEEENS_8danglingEEET0_EEOSA_SH_' => 1,
                                                      '_ZNKSt6vectorIS_ImSaImEESaIS1_EE12_M_check_lenEmPKc' => 1,
                                                      '_ZNKSt6vectorIS_ImSaImEESaIS1_EE4sizeEv' => 1,
                                                      '_ZNKSt6vectorIS_ImSaImEESaIS1_EE8max_sizeEv' => 1,
                                                      '_ZNKSt6vectorIhSaIhEE11_M_data_ptrIhEEPT_S4_' => 1,
                                                      '_ZNKSt6vectorIhSaIhEE3endEv' => 1,
                                                      '_ZNKSt6vectorIhSaIhEE4dataEv' => 1,
                                                      '_ZNKSt6vectorIhSaIhEE4sizeEv' => 1,
                                                      '_ZNKSt6vectorIhSaIhEE5beginEv' => 1,
                                                      '_ZNKSt6vectorImSaImEE12_M_check_lenEmPKc' => 1,
                                                      '_ZNKSt6vectorImSaImEE3endEv' => 1,
                                                      '_ZNKSt6vectorImSaImEE4sizeEv' => 1,
                                                      '_ZNKSt6vectorImSaImEE5beginEv' => 1,
                                                      '_ZNKSt6vectorImSaImEE5emptyEv' => 1,
                                                      '_ZNKSt6vectorImSaImEE8max_sizeEv' => 1,
                                                      '_ZNKSt6vectorItSaItEE12_M_check_lenEmPKc' => 1,
                                                      '_ZNKSt6vectorItSaItEE3endEv' => 1,
                                                      '_ZNKSt6vectorItSaItEE4sizeEv' => 1,
                                                      '_ZNKSt6vectorItSaItEE5beginEv' => 1,
                                                      '_ZNKSt6vectorItSaItEE5emptyEv' => 1,
                                                      '_ZNKSt6vectorItSaItEE8capacityEv' => 1,
                                                      '_ZNKSt6vectorItSaItEE8max_sizeEv' => 1,
                                                      '_ZNKSt7__cxx1112basic_stringIcSt11char_traitsIcESaIcEE11_M_disjunctEPKc' => 1,
                                                      '_ZNKSt7__cxx1112basic_stringIcSt11char_traitsIcESaIcEE11_M_is_localEv' => 1,
                                                      '_ZNKSt7__cxx1112basic_stringIcSt11char_traitsIcESaIcEE13_M_local_dataEv' => 1,
                                                      '_ZNKSt7__cxx1112basic_stringIcSt11char_traitsIcESaIcEE15_M_check_lengthEmmPKc' => 1,
                                                      '_ZNKSt7__cxx1112basic_stringIcSt11char_traitsIcESaIcEE16_M_get_allocatorEv' => 1,
                                                      '_ZNKSt7__cxx1112basic_stringIcSt11char_traitsIcESaIcEE4dataEv' => 1,
                                                      '_ZNKSt7__cxx1112basic_stringIcSt11char_traitsIcESaIcEE4sizeEv' => 1,
                                                      '_ZNKSt7__cxx1112basic_stringIcSt11char_traitsIcESaIcEE5emptyEv' => 1,
                                                      '_ZNKSt7__cxx1112basic_stringIcSt11char_traitsIcESaIcEE6lengthEv' => 1,
                                                      '_ZNKSt7__cxx1112basic_stringIcSt11char_traitsIcESaIcEE7_M_dataEv' => 1,
                                                      '_ZNKSt7__cxx1112basic_stringIcSt11char_traitsIcESaIcEE8_M_checkEmPKc' => 1,
                                                      '_ZNKSt7__cxx1112basic_stringIcSt11char_traitsIcESaIcEE8capacityEv' => 1,
                                                      '_ZNKSt7__cxx1112basic_stringIcSt11char_traitsIcESaIcEE8max_sizeEv' => 1,
                                                      '_ZNKSt7__cxx1112basic_stringIcSt11char_traitsIcESaIcEEcvSt17basic_string_viewIcS2_EEv' => 1,
                                                      '_ZNKSt8__format10_Sink_iterIcE10_M_reserveEm' => 1,
                                                      '_ZNKSt8__format14_Fixedbuf_sinkIcE4viewEv' => 1,
                                                      '_ZNKSt8__format14__formatter_fpIcE11_M_localizeB5cxx11ESt17basic_string_viewIcSt11char_traitsIcEEcRKSt6locale' => 1,
                                                      '_ZNKSt8__format14__formatter_fpIcE6formatIDF128_NS_10_Sink_iterIcEEEENSt20basic_format_contextIT0_cE8iteratorET_RS7_' => 1,
                                                      '_ZNKSt8__format14__formatter_fpIcE6formatIdNS_10_Sink_iterIcEEEENSt20basic_format_contextIT0_cE8iteratorET_RS7_' => 1,
                                                      '_ZNKSt8__format14__formatter_fpIcE6formatIeNS_10_Sink_iterIcEEEENSt20basic_format_contextIT0_cE8iteratorET_RS7_' => 1,
                                                      '_ZNKSt8__format14__formatter_fpIcE6formatIfNS_10_Sink_iterIcEEEENSt20basic_format_contextIT0_cE8iteratorET_RS7_' => 1,
                                                      '_ZNKSt8__format15__formatter_intIcE13_M_format_intINS_10_Sink_iterIcEEEENSt20basic_format_contextIT_cE8iteratorESt17basic_string_viewIcSt11char_traitsIcEEmRS7_' => 1,
                                                      '_ZNKSt8__format15__formatter_intIcE19_M_format_characterINS_10_Sink_iterIcEEEENSt20basic_format_contextIT_cE8iteratorEcRS7_' => 1,
                                                      '_ZNKSt8__format15__formatter_intIcE27_M_format_character_escapedINS_10_Sink_iterIcEEEENSt20basic_format_contextIT_cE8iteratorEcRS7_' => 1,
                                                      '_ZNKSt8__format15__formatter_intIcE6formatINS_10_Sink_iterIcEEEENSt20basic_format_contextIT_cE8iteratorEbRS7_' => 1,
                                                      '_ZNKSt8__format15__formatter_intIcE6formatIhNS_10_Sink_iterIcEEEENSt20basic_format_contextIT0_cE8iteratorET_RS7_' => 1,
                                                      '_ZNKSt8__format15__formatter_intIcE6formatIiNS_10_Sink_iterIcEEEENSt20basic_format_contextIT0_cE8iteratorET_RS7_' => 1,
                                                      '_ZNKSt8__format15__formatter_intIcE6formatIjNS_10_Sink_iterIcEEEENSt20basic_format_contextIT0_cE8iteratorET_RS7_' => 1,
                                                      '_ZNKSt8__format15__formatter_intIcE6formatInNS_10_Sink_iterIcEEEENSt20basic_format_contextIT0_cE8iteratorET_RS7_' => 1,
                                                      '_ZNKSt8__format15__formatter_intIcE6formatIoNS_10_Sink_iterIcEEEENSt20basic_format_contextIT0_cE8iteratorET_RS7_' => 1,
                                                      '_ZNKSt8__format15__formatter_intIcE6formatIxNS_10_Sink_iterIcEEEENSt20basic_format_contextIT0_cE8iteratorET_RS7_' => 1,
                                                      '_ZNKSt8__format15__formatter_intIcE6formatIyNS_10_Sink_iterIcEEEENSt20basic_format_contextIT0_cE8iteratorET_RS7_' => 1,
                                                      '_ZNKSt8__format15__formatter_strIcE6formatINS_10_Sink_iterIcEEEET_St17basic_string_viewIcSt11char_traitsIcEERSt20basic_format_contextIS5_cE' => 1,
                                                      '_ZNKSt8__format17_WidthPrecVisitorclIDF128_EEmRT_' => 1,
                                                      '_ZNKSt8__format17_WidthPrecVisitorclINSt16basic_format_argISt20basic_format_contextINS_10_Sink_iterIcEEcEE6handleEEEmRT_' => 1,
                                                      '_ZNKSt8__format17_WidthPrecVisitorclIPKcEEmRT_' => 1,
                                                      '_ZNKSt8__format17_WidthPrecVisitorclIPKvEEmRT_' => 1,
                                                      '_ZNKSt8__format17_WidthPrecVisitorclISt17basic_string_viewIcSt11char_traitsIcEEEEmRT_' => 1,
                                                      '_ZNKSt8__format17_WidthPrecVisitorclISt9monostateEEmRT_' => 1,
                                                      '_ZNKSt8__format17_WidthPrecVisitorclIbEEmRT_' => 1,
                                                      '_ZNKSt8__format17_WidthPrecVisitorclIcEEmRT_' => 1,
                                                      '_ZNKSt8__format17_WidthPrecVisitorclIdEEmRT_' => 1,
                                                      '_ZNKSt8__format17_WidthPrecVisitorclIeEEmRT_' => 1,
                                                      '_ZNKSt8__format17_WidthPrecVisitorclIfEEmRT_' => 1,
                                                      '_ZNKSt8__format17_WidthPrecVisitorclIiEEmRT_' => 1,
                                                      '_ZNKSt8__format17_WidthPrecVisitorclIjEEmRT_' => 1,
                                                      '_ZNKSt8__format17_WidthPrecVisitorclInEEmRT_' => 1,
                                                      '_ZNKSt8__format17_WidthPrecVisitorclIoEEmRT_' => 1,
                                                      '_ZNKSt8__format17_WidthPrecVisitorclIxEEmRT_' => 1,
                                                      '_ZNKSt8__format17_WidthPrecVisitorclIyEEmRT_' => 1,
                                                      '_ZNKSt8__format5_SinkIcE12_Reservation3getEv' => 1,
                                                      '_ZNKSt8__format5_SinkIcE12_ReservationcvbEv' => 1,
                                                      '_ZNKSt8__format5_SpecIcE12_M_get_widthISt20basic_format_contextINS_10_Sink_iterIcEEcEEEmRT_' => 1,
                                                      '_ZNKSt8__format5_SpecIcE16_M_get_precisionISt20basic_format_contextINS_10_Sink_iterIcEEcEEEmRT_' => 1,
                                                      '_ZNKSt8__format8_ScannerIcE10_M_fmt_strEv' => 1,
                                                      '_ZNKSt8__format8_ScannerIcE3endEv' => 1,
                                                      '_ZNKSt8__format8_ScannerIcE5beginEv' => 1,
                                                      '_ZNKSt8expectedINSt7__cxx1112basic_stringIcSt11char_traitsIcESaIcEEES5_E9has_valueEv' => 1,
                                                      '_ZNKSt8expectedIvNSt7__cxx1112basic_stringIcSt11char_traitsIcESaIcEEEE9has_valueEv' => 1,
                                                      '_ZNKSt8optionalINSt7__cxx1112basic_stringIcSt11char_traitsIcESaIcEEEEcvbEv' => 1,
                                                      '_ZNKSt9__unicode13_Utf_iteratorIDicPKDiS2_NS_5_ReplEEdeEv' => 1,
                                                      '_ZNKSt9__unicode13_Utf_iteratorIcDiPKcS2_NS_5_ReplEE3endEv' => 1,
                                                      '_ZNKSt9__unicode13_Utf_iteratorIcDiPKcS2_NS_5_ReplEE4baseEv' => 1,
                                                      '_ZNKSt9__unicode13_Utf_iteratorIcDiPKcS2_NS_5_ReplEE4baseEvQ16forward_iteratorIT1_E' => 1,
                                                      '_ZNKSt9__unicode13_Utf_iteratorIcDiPKcS2_NS_5_ReplEE7_M_currEv' => 1,
                                                      '_ZNKSt9__unicode13_Utf_iteratorIcDiPKcS2_NS_5_ReplEE8_M_unitsEv' => 1,
                                                      '_ZNKSt9__unicode13_Utf_iteratorIcDiPKcS2_NS_5_ReplEE8_M_unitsEvQ16forward_iteratorIT1_E' => 1,
                                                      '_ZNKSt9__unicode13_Utf_iteratorIcDiPKcS2_NS_5_ReplEEdeEv' => 1,
                                                      '_ZNKSt9__unicode5_ReplclEv' => 1,
                                                      '_ZNKSt9__unicode9_Utf_viewIDiNSt6ranges8subrangeIPKcS4_LNS1_13subrange_kindE1EEEE5emptyEv' => 1,
                                                      '_ZNKSt9__unicode9__v16_0_022_Grapheme_cluster_viewISt17basic_string_viewIcSt11char_traitsIcEEE3endEv' => 1,
                                                      '_ZNKSt9__unicode9__v16_0_022_Grapheme_cluster_viewISt17basic_string_viewIcSt11char_traitsIcEEE5beginEv' => 1,
                                                      '_ZNKSt9__unicode9__v16_0_022_Grapheme_cluster_viewISt17basic_string_viewIcSt11char_traitsIcEEE9_Iterator11_M_is_breakENS0_13_Gcb_propertyES8_NS_13_Utf_iteratorIcDiPKcSB_NS_5_ReplEEE' => 1,
                                                      '_ZNKSt9__unicode9__v16_0_022_Grapheme_cluster_viewISt17basic_string_viewIcSt11char_traitsIcEEE9_Iterator3endEv' => 1,
                                                      '_ZNKSt9__unicode9__v16_0_022_Grapheme_cluster_viewISt17basic_string_viewIcSt11char_traitsIcEEE9_Iterator4baseEv' => 1,
                                                      '_ZNKSt9__unicode9__v16_0_022_Grapheme_cluster_viewISt17basic_string_viewIcSt11char_traitsIcEEE9_Iterator5widthEv' => 1,
                                                      '_ZNKSt9__unicode9__v16_0_022_Grapheme_cluster_viewISt17basic_string_viewIcSt11char_traitsIcEEE9_IteratoreqERKPKc' => 1,
                                                      '_ZNKSt9formatterIDF128_cE6formatINSt8__format10_Sink_iterIcEEEENSt20basic_format_contextIT_cE8iteratorEDF128_RS7_' => 1,
                                                      '_ZNKSt9formatterIPKccE6formatINSt8__format10_Sink_iterIcEEEENSt20basic_format_contextIT_cE8iteratorES1_RS9_' => 1,
                                                      '_ZNKSt9formatterIPKvcE6formatINSt8__format10_Sink_iterIcEEEENSt20basic_format_contextIT_cE8iteratorES1_RS9_' => 1,
                                                      '_ZNKSt9formatterISt17basic_string_viewIcSt11char_traitsIcEEcE6formatINSt8__format10_Sink_iterIcEEEENSt20basic_format_contextIT_cE8iteratorES3_RSB_' => 1,
                                                      '_ZNKSt9formatterIbcE6formatINSt8__format10_Sink_iterIcEEEENSt20basic_format_contextIT_cE8iteratorEbRS7_' => 1,
                                                      '_ZNKSt9formatterIccE6formatINSt8__format10_Sink_iterIcEEEENSt20basic_format_contextIT_cE8iteratorEcRS7_' => 1,
                                                      '_ZNKSt9formatterIdcE6formatINSt8__format10_Sink_iterIcEEEENSt20basic_format_contextIT_cE8iteratorEdRS7_' => 1,
                                                      '_ZNKSt9formatterIecE6formatINSt8__format10_Sink_iterIcEEEENSt20basic_format_contextIT_cE8iteratorEeRS7_' => 1,
                                                      '_ZNKSt9formatterIfcE6formatINSt8__format10_Sink_iterIcEEEENSt20basic_format_contextIT_cE8iteratorEfRS7_' => 1,
                                                      '_ZNKSt9formatterIicE6formatINSt8__format10_Sink_iterIcEEEENSt20basic_format_contextIT_cE8iteratorEiRS7_' => 1,
                                                      '_ZNKSt9formatterIjcE6formatINSt8__format10_Sink_iterIcEEEENSt20basic_format_contextIT_cE8iteratorEjRS7_' => 1,
                                                      '_ZNKSt9formatterIncE6formatINSt8__format10_Sink_iterIcEEEENSt20basic_format_contextIT_cE8iteratorEnRS7_' => 1,
                                                      '_ZNKSt9formatterIocE6formatINSt8__format10_Sink_iterIcEEEENSt20basic_format_contextIT_cE8iteratorEoRS7_' => 1,
                                                      '_ZNKSt9formatterIxcE6formatINSt8__format10_Sink_iterIcEEEENSt20basic_format_contextIT_cE8iteratorExRS7_' => 1,
                                                      '_ZNKSt9formatterIycE6formatINSt8__format10_Sink_iterIcEEEENSt20basic_format_contextIT_cE8iteratorEyRS7_' => 1,
                                                      '_ZNOSt10unexpectedINSt7__cxx1112basic_stringIcSt11char_traitsIcESaIcEEEE5errorEv' => 1,
                                                      '_ZNOSt10unexpectedIPKcE5errorEv' => 1,
                                                      '_ZNOSt8__format9_Seq_sinkINSt7__cxx1112basic_stringIcSt11char_traitsIcESaIcEEEE3getEv' => 1,
                                                      '_ZNRSt8expectedINSt7__cxx1112basic_stringIcSt11char_traitsIcESaIcEEES5_E5errorEv' => 1,
                                                      '_ZNRSt8expectedINSt7__cxx1112basic_stringIcSt11char_traitsIcESaIcEEES5_E5valueEv' => 1,
                                                      '_ZNRSt8expectedIvNSt7__cxx1112basic_stringIcSt11char_traitsIcESaIcEEEE5errorEv' => 1,
                                                      '_ZNSt10__pair_getILm0EE10__move_getIRtRN4pldm9fw_update14DescriptorDataEEEOT_OSt4pairIS7_T0_E' => 1,
                                                      '_ZNSt10__pair_getILm0EE10__move_getItPKcEEOT_OSt4pairIS4_T0_E' => 1,
                                                      '_ZNSt10__pair_getILm0EE5__getIKtN4pldm9fw_update14DescriptorDataEEERT_RSt4pairIS6_T0_E' => 1,
                                                      '_ZNSt10__pair_getILm1EE10__move_getIRtRN4pldm9fw_update14DescriptorDataEEEOT0_OSt4pairIT_S7_E' => 1,
                                                      '_ZNSt10__pair_getILm1EE10__move_getItPKcEEOT0_OSt4pairIT_S4_E' => 1,
                                                      '_ZNSt10__pair_getILm1EE5__getIKtN4pldm9fw_update14DescriptorDataEEERT0_RSt4pairIT_S6_E' => 1,
                                                      '_ZNSt10unexpectedINSt7__cxx1112basic_stringIcSt11char_traitsIcESaIcEEEEC1IRS5_EEOT_' => 1,
                                                      '_ZNSt10unexpectedINSt7__cxx1112basic_stringIcSt11char_traitsIcESaIcEEEEC1IS5_EEOT_' => 1,
                                                      '_ZNSt10unexpectedINSt7__cxx1112basic_stringIcSt11char_traitsIcESaIcEEEEC2IRS5_EEOT_' => 1,
                                                      '_ZNSt10unexpectedINSt7__cxx1112basic_stringIcSt11char_traitsIcESaIcEEEEC2IS5_EEOT_' => 1,
                                                      '_ZNSt10unexpectedINSt7__cxx1112basic_stringIcSt11char_traitsIcESaIcEEEED1Ev' => 1,
                                                      '_ZNSt10unexpectedINSt7__cxx1112basic_stringIcSt11char_traitsIcESaIcEEEED2Ev' => 1,
                                                      '_ZNSt10unexpectedIPKcEC1IRA13_S0_EEOT_' => 1,
                                                      '_ZNSt10unexpectedIPKcEC1IRA20_S0_EEOT_' => 1,
                                                      '_ZNSt10unexpectedIPKcEC2IRA13_S0_EEOT_' => 1,
                                                      '_ZNSt10unexpectedIPKcEC2IRA20_S0_EEOT_' => 1,
                                                      '_ZNSt11char_traitsIcE2eqERKcS2_' => 1,
                                                      '_ZNSt11char_traitsIcE2ltERKcS2_' => 1,
                                                      '_ZNSt11char_traitsIcE4copyEPcPKcm' => 1,
                                                      '_ZNSt11char_traitsIcE4findEPKcmRS1_' => 1,
                                                      '_ZNSt11char_traitsIcE4moveEPcPKcm' => 1,
                                                      '_ZNSt11char_traitsIcE6assignEPcmc' => 1,
                                                      '_ZNSt11char_traitsIcE6assignERcRKc' => 1,
                                                      '_ZNSt11char_traitsIcE6lengthEPKc' => 1,
                                                      '_ZNSt11char_traitsIcE7compareEPKcS2_m' => 1,
                                                      '_ZNSt12_Base_bitsetILm1EEC1Ey' => 1,
                                                      '_ZNSt12_Base_bitsetILm1EEC2Ey' => 1,
                                                      '_ZNSt12_Vector_baseISt6vectorImSaImEESaIS2_EE11_M_allocateEm' => 1,
                                                      '_ZNSt12_Vector_baseISt6vectorImSaImEESaIS2_EE12_Vector_implD1Ev' => 1,
                                                      '_ZNSt12_Vector_baseISt6vectorImSaImEESaIS2_EE12_Vector_implD2Ev' => 1,
                                                      '_ZNSt12_Vector_baseISt6vectorImSaImEESaIS2_EE13_M_deallocateEPS2_m' => 1,
                                                      '_ZNSt12_Vector_baseISt6vectorImSaImEESaIS2_EE19_M_get_Tp_allocatorEv' => 1,
                                                      '_ZNSt12_Vector_baseISt6vectorImSaImEESaIS2_EED1Ev' => 1,
                                                      '_ZNSt12_Vector_baseISt6vectorImSaImEESaIS2_EED2Ev' => 1,
                                                      '_ZNSt12_Vector_baseIhSaIhEE11_M_allocateEm' => 1,
                                                      '_ZNSt12_Vector_baseIhSaIhEE12_Vector_implC1ERKS0_' => 1,
                                                      '_ZNSt12_Vector_baseIhSaIhEE12_Vector_implC1Ev' => 1,
                                                      '_ZNSt12_Vector_baseIhSaIhEE12_Vector_implC1EvQ26is_default_constructible_vIN9__gnu_cxx14__alloc_traitsIT0_NS5_10value_typeEE6rebindIT_E5otherEE' => 1,
                                                      '_ZNSt12_Vector_baseIhSaIhEE12_Vector_implC2ERKS0_' => 1,
                                                      '_ZNSt12_Vector_baseIhSaIhEE12_Vector_implC2Ev' => 1,
                                                      '_ZNSt12_Vector_baseIhSaIhEE12_Vector_implC2EvQ26is_default_constructible_vIN9__gnu_cxx14__alloc_traitsIT0_NS5_10value_typeEE6rebindIT_E5otherEE' => 1,
                                                      '_ZNSt12_Vector_baseIhSaIhEE12_Vector_implD1Ev' => 1,
                                                      '_ZNSt12_Vector_baseIhSaIhEE12_Vector_implD2Ev' => 1,
                                                      '_ZNSt12_Vector_baseIhSaIhEE13_M_deallocateEPhm' => 1,
                                                      '_ZNSt12_Vector_baseIhSaIhEE17_M_create_storageEm' => 1,
                                                      '_ZNSt12_Vector_baseIhSaIhEE17_Vector_impl_data12_M_copy_dataERKS2_' => 1,
                                                      '_ZNSt12_Vector_baseIhSaIhEE17_Vector_impl_data12_M_swap_dataERS2_' => 1,
                                                      '_ZNSt12_Vector_baseIhSaIhEE17_Vector_impl_dataC1Ev' => 1,
                                                      '_ZNSt12_Vector_baseIhSaIhEE17_Vector_impl_dataC2Ev' => 1,
                                                      '_ZNSt12_Vector_baseIhSaIhEE19_M_get_Tp_allocatorEv' => 1,
                                                      '_ZNSt12_Vector_baseIhSaIhEEC1ERKS0_' => 1,
                                                      '_ZNSt12_Vector_baseIhSaIhEEC1EmRKS0_' => 1,
                                                      '_ZNSt12_Vector_baseIhSaIhEEC1Ev' => 1,
                                                      '_ZNSt12_Vector_baseIhSaIhEEC2ERKS0_' => 1,
                                                      '_ZNSt12_Vector_baseIhSaIhEEC2EmRKS0_' => 1,
                                                      '_ZNSt12_Vector_baseIhSaIhEEC2Ev' => 1,
                                                      '_ZNSt12_Vector_baseIhSaIhEED1Ev' => 1,
                                                      '_ZNSt12_Vector_baseIhSaIhEED2Ev' => 1,
                                                      '_ZNSt12_Vector_baseImSaImEE11_M_allocateEm' => 1,
                                                      '_ZNSt12_Vector_baseImSaImEE12_Vector_implC1EOS2_' => 1,
                                                      '_ZNSt12_Vector_baseImSaImEE12_Vector_implC1ERKS0_' => 1,
                                                      '_ZNSt12_Vector_baseImSaImEE12_Vector_implC1Ev' => 1,
                                                      '_ZNSt12_Vector_baseImSaImEE12_Vector_implC1EvQ26is_default_constructible_vIN9__gnu_cxx14__alloc_traitsIT0_NS5_10value_typeEE6rebindIT_E5otherEE' => 1,
                                                      '_ZNSt12_Vector_baseImSaImEE12_Vector_implC2EOS2_' => 1,
                                                      '_ZNSt12_Vector_baseImSaImEE12_Vector_implC2ERKS0_' => 1,
                                                      '_ZNSt12_Vector_baseImSaImEE12_Vector_implC2Ev' => 1,
                                                      '_ZNSt12_Vector_baseImSaImEE12_Vector_implC2EvQ26is_default_constructible_vIN9__gnu_cxx14__alloc_traitsIT0_NS5_10value_typeEE6rebindIT_E5otherEE' => 1,
                                                      '_ZNSt12_Vector_baseImSaImEE12_Vector_implD1Ev' => 1,
                                                      '_ZNSt12_Vector_baseImSaImEE12_Vector_implD2Ev' => 1,
                                                      '_ZNSt12_Vector_baseImSaImEE13_M_deallocateEPmm' => 1,
                                                      '_ZNSt12_Vector_baseImSaImEE17_M_create_storageEm' => 1,
                                                      '_ZNSt12_Vector_baseImSaImEE17_Vector_impl_dataC1EOS2_' => 1,
                                                      '_ZNSt12_Vector_baseImSaImEE17_Vector_impl_dataC1Ev' => 1,
                                                      '_ZNSt12_Vector_baseImSaImEE17_Vector_impl_dataC2EOS2_' => 1,
                                                      '_ZNSt12_Vector_baseImSaImEE17_Vector_impl_dataC2Ev' => 1,
                                                      '_ZNSt12_Vector_baseImSaImEE19_M_get_Tp_allocatorEv' => 1,
                                                      '_ZNSt12_Vector_baseImSaImEEC1EOS1_' => 1,
                                                      '_ZNSt12_Vector_baseImSaImEEC1EmRKS0_' => 1,
                                                      '_ZNSt12_Vector_baseImSaImEEC1Ev' => 1,
                                                      '_ZNSt12_Vector_baseImSaImEEC2EOS1_' => 1,
                                                      '_ZNSt12_Vector_baseImSaImEEC2EmRKS0_' => 1,
                                                      '_ZNSt12_Vector_baseImSaImEEC2Ev' => 1,
                                                      '_ZNSt12_Vector_baseImSaImEED1Ev' => 1,
                                                      '_ZNSt12_Vector_baseImSaImEED2Ev' => 1,
                                                      '_ZNSt12_Vector_baseItSaItEE11_M_allocateEm' => 1,
                                                      '_ZNSt12_Vector_baseItSaItEE12_Vector_implD1Ev' => 1,
                                                      '_ZNSt12_Vector_baseItSaItEE12_Vector_implD2Ev' => 1,
                                                      '_ZNSt12_Vector_baseItSaItEE13_M_deallocateEPtm' => 1,
                                                      '_ZNSt12_Vector_baseItSaItEE19_M_get_Tp_allocatorEv' => 1,
                                                      '_ZNSt12_Vector_baseItSaItEED1Ev' => 1,
                                                      '_ZNSt12_Vector_baseItSaItEED2Ev' => 1,
                                                      '_ZNSt12format_errorC1EPKc' => 1,
                                                      '_ZNSt12format_errorC2EPKc' => 1,
                                                      '_ZNSt12format_errorD0Ev' => 1,
                                                      '_ZNSt12format_errorD1Ev' => 1,
                                                      '_ZNSt12format_errorD2Ev' => 1,
                                                      '_ZNSt13_Sanitize_valILm16ELb1EE18_S_do_sanitize_valEy' => 1,
                                                      '_ZNSt13_Sanitize_valILm32ELb1EE18_S_do_sanitize_valEy' => 1,
                                                      '_ZNSt14_Optional_baseINSt7__cxx1112basic_stringIcSt11char_traitsIcESaIcEEELb0ELb0EEC1ERKS6_' => 1,
                                                      '_ZNSt14_Optional_baseINSt7__cxx1112basic_stringIcSt11char_traitsIcESaIcEEELb0ELb0EEC1Ev' => 1,
                                                      '_ZNSt14_Optional_baseINSt7__cxx1112basic_stringIcSt11char_traitsIcESaIcEEELb0ELb0EEC1IJRKS5_ELb0EEESt10in_place_tDpOT_' => 1,
                                                      '_ZNSt14_Optional_baseINSt7__cxx1112basic_stringIcSt11char_traitsIcESaIcEEELb0ELb0EEC2ERKS6_' => 1,
                                                      '_ZNSt14_Optional_baseINSt7__cxx1112basic_stringIcSt11char_traitsIcESaIcEEELb0ELb0EEC2Ev' => 1,
                                                      '_ZNSt14_Optional_baseINSt7__cxx1112basic_stringIcSt11char_traitsIcESaIcEEELb0ELb0EEC2IJRKS5_ELb0EEESt10in_place_tDpOT_' => 1,
                                                      '_ZNSt14_Optional_baseINSt7__cxx1112basic_stringIcSt11char_traitsIcESaIcEEELb0ELb0EED1Ev' => 1,
                                                      '_ZNSt14_Optional_baseINSt7__cxx1112basic_stringIcSt11char_traitsIcESaIcEEELb0ELb0EED2Ev' => 1,
                                                      '_ZNSt14_Optional_baseIiLb1ELb1EEC1Ev' => 1,
                                                      '_ZNSt14_Optional_baseIiLb1ELb1EEC1IJRiELb0EEESt10in_place_tDpOT_' => 1,
                                                      '_ZNSt14_Optional_baseIiLb1ELb1EEC2Ev' => 1,
                                                      '_ZNSt14_Optional_baseIiLb1ELb1EEC2IJRiELb0EEESt10in_place_tDpOT_' => 1,
                                                      '_ZNSt15_Rb_tree_header8_M_resetEv' => 1,
                                                      '_ZNSt15_Rb_tree_headerC1Ev' => 1,
                                                      '_ZNSt15_Rb_tree_headerC2Ev' => 1,
                                                      '_ZNSt15__new_allocatorISt6vectorImSaImEEE10deallocateEPS2_m' => 1,
                                                      '_ZNSt15__new_allocatorISt6vectorImSaImEEE8allocateEmPKv' => 1,
                                                      '_ZNSt15__new_allocatorIcE10deallocateEPcm' => 1,
                                                      '_ZNSt15__new_allocatorIcE8allocateEmPKv' => 1,
                                                      '_ZNSt15__new_allocatorIhE10deallocateEPhm' => 1,
                                                      '_ZNSt15__new_allocatorIhE8allocateEmPKv' => 1,
                                                      '_ZNSt15__new_allocatorImE10deallocateEPmm' => 1,
                                                      '_ZNSt15__new_allocatorImE8allocateEmPKv' => 1,
                                                      '_ZNSt15__new_allocatorItE10deallocateEPtm' => 1,
                                                      '_ZNSt15__new_allocatorItE8allocateEmPKv' => 1,
                                                      '_ZNSt16basic_format_argISt20basic_format_contextINSt8__format10_Sink_iterIcEEcEE6_M_setIPKcEEvT_' => 1,
                                                      '_ZNSt16basic_format_argISt20basic_format_contextINSt8__format10_Sink_iterIcEEcEE6_M_setIiEEvT_' => 1,
                                                      '_ZNSt16basic_format_argISt20basic_format_contextINSt8__format10_Sink_iterIcEEcEE6_M_setIjEEvT_' => 1,
                                                      '_ZNSt16basic_format_argISt20basic_format_contextINSt8__format10_Sink_iterIcEEcEE6_M_setIyEEvT_' => 1,
                                                      '_ZNSt16basic_format_argISt20basic_format_contextINSt8__format10_Sink_iterIcEEcEE8_M_visitINS1_17_WidthPrecVisitorEEEDcOT_NS1_6_Arg_tE' => 1,
                                                      '_ZNSt16basic_format_argISt20basic_format_contextINSt8__format10_Sink_iterIcEEcEE8_M_visitIZNS1_15__do_vformat_toIS3_cS4_EET_S8_St17basic_string_viewIT0_St11char_traitsISA_EERKSt17basic_format_argsIT1_EPKSt6localeEUlRS8_E_EEDcOS8_NS1_6_Arg_tE' => 1,
                                                      '_ZNSt16basic_format_argISt20basic_format_contextINSt8__format10_Sink_iterIcEEcEE8_M_visitIZNS1_19_Formatting_scannerIS3_cE13_M_format_argEmEUlRT_E_EEDcOS9_NS1_6_Arg_tE' => 1,
                                                      '_ZNSt16basic_format_argISt20basic_format_contextINSt8__format10_Sink_iterIcEEcEEC1IA3_KcEERT_' => 1,
                                                      '_ZNSt16basic_format_argISt20basic_format_contextINSt8__format10_Sink_iterIcEEcEEC1IiEERT_' => 1,
                                                      '_ZNSt16basic_format_argISt20basic_format_contextINSt8__format10_Sink_iterIcEEcEEC1ImEERT_' => 1,
                                                      '_ZNSt16basic_format_argISt20basic_format_contextINSt8__format10_Sink_iterIcEEcEEC1ItEERT_' => 1,
                                                      '_ZNSt16basic_format_argISt20basic_format_contextINSt8__format10_Sink_iterIcEEcEEC2IA3_KcEERT_' => 1,
                                                      '_ZNSt16basic_format_argISt20basic_format_contextINSt8__format10_Sink_iterIcEEcEEC2IiEERT_' => 1,
                                                      '_ZNSt16basic_format_argISt20basic_format_contextINSt8__format10_Sink_iterIcEEcEEC2ImEERT_' => 1,
                                                      '_ZNSt16basic_format_argISt20basic_format_contextINSt8__format10_Sink_iterIcEEcEEC2ItEERT_' => 1,
                                                      '_ZNSt16reverse_iteratorIPKNSt8__format6_Arg_tEEC1ES3_' => 1,
                                                      '_ZNSt16reverse_iteratorIPKNSt8__format6_Arg_tEEC2ES3_' => 1,
                                                      '_ZNSt16reverse_iteratorIPKNSt8__format6_Arg_tEEppEv' => 1,
                                                      '_ZNSt17_Optional_payloadINSt7__cxx1112basic_stringIcSt11char_traitsIcESaIcEEELb0ELb0ELb0EEC1Ev' => 1,
                                                      '_ZNSt17_Optional_payloadINSt7__cxx1112basic_stringIcSt11char_traitsIcESaIcEEELb0ELb0ELb0EEC2Ev' => 1,
                                                      '_ZNSt17_Optional_payloadINSt7__cxx1112basic_stringIcSt11char_traitsIcESaIcEEELb0ELb0ELb0EECI1St22_Optional_payload_baseIS5_EEbRKS8_' => 1,
                                                      '_ZNSt17_Optional_payloadINSt7__cxx1112basic_stringIcSt11char_traitsIcESaIcEEELb0ELb0ELb0EECI1St22_Optional_payload_baseIS5_EIJRKS5_EEESt10in_place_tDpOT_' => 1,
                                                      '_ZNSt17_Optional_payloadINSt7__cxx1112basic_stringIcSt11char_traitsIcESaIcEEELb0ELb0ELb0EECI2St22_Optional_payload_baseIS5_EEbRKS8_' => 1,
                                                      '_ZNSt17_Optional_payloadINSt7__cxx1112basic_stringIcSt11char_traitsIcESaIcEEELb0ELb0ELb0EECI2St22_Optional_payload_baseIS5_EIJRKS5_EEESt10in_place_tDpOT_' => 1,
                                                      '_ZNSt17_Optional_payloadINSt7__cxx1112basic_stringIcSt11char_traitsIcESaIcEEELb0ELb0ELb0EED1Ev' => 1,
                                                      '_ZNSt17_Optional_payloadINSt7__cxx1112basic_stringIcSt11char_traitsIcESaIcEEELb0ELb0ELb0EED2Ev' => 1,
                                                      '_ZNSt17_Optional_payloadINSt7__cxx1112basic_stringIcSt11char_traitsIcESaIcEEELb1ELb0ELb0EEC1Ev' => 1,
                                                      '_ZNSt17_Optional_payloadINSt7__cxx1112basic_stringIcSt11char_traitsIcESaIcEEELb1ELb0ELb0EEC2Ev' => 1,
                                                      '_ZNSt17_Optional_payloadINSt7__cxx1112basic_stringIcSt11char_traitsIcESaIcEEELb1ELb0ELb0EECI1St22_Optional_payload_baseIS5_EEbRKS8_' => 1,
                                                      '_ZNSt17_Optional_payloadINSt7__cxx1112basic_stringIcSt11char_traitsIcESaIcEEELb1ELb0ELb0EECI1St22_Optional_payload_baseIS5_EIJRKS5_EEESt10in_place_tDpOT_' => 1,
                                                      '_ZNSt17_Optional_payloadINSt7__cxx1112basic_stringIcSt11char_traitsIcESaIcEEELb1ELb0ELb0EECI2St22_Optional_payload_baseIS5_EEbRKS8_' => 1,
                                                      '_ZNSt17_Optional_payloadINSt7__cxx1112basic_stringIcSt11char_traitsIcESaIcEEELb1ELb0ELb0EECI2St22_Optional_payload_baseIS5_EIJRKS5_EEESt10in_place_tDpOT_' => 1,
                                                      '_ZNSt17_Optional_payloadINSt7__cxx1112basic_stringIcSt11char_traitsIcESaIcEEELb1ELb0ELb0EED1Ev' => 1,
                                                      '_ZNSt17_Optional_payloadINSt7__cxx1112basic_stringIcSt11char_traitsIcESaIcEEELb1ELb0ELb0EED2Ev' => 1,
                                                      '_ZNSt17_Optional_payloadIiLb1ELb1ELb1EEC1Ev' => 1,
                                                      '_ZNSt17_Optional_payloadIiLb1ELb1ELb1EEC2Ev' => 1,
                                                      '_ZNSt17_Optional_payloadIiLb1ELb1ELb1EECI1St22_Optional_payload_baseIiEIJRiEEESt10in_place_tDpOT_' => 1,
                                                      '_ZNSt17_Optional_payloadIiLb1ELb1ELb1EECI2St22_Optional_payload_baseIiEIJRiEEESt10in_place_tDpOT_' => 1,
                                                      '_ZNSt17basic_format_argsISt20basic_format_contextINSt8__format10_Sink_iterIcEEcEEC1IJjyPKciEEERKNS1_10_Arg_storeIS4_JDpT_EEE' => 1,
                                                      '_ZNSt17basic_format_argsISt20basic_format_contextINSt8__format10_Sink_iterIcEEcEEC2IJjyPKciEEERKNS1_10_Arg_storeIS4_JDpT_EEE' => 1,
                                                      '_ZNSt17basic_string_viewIcSt11char_traitsIcEE10_S_compareEmm' => 1,
                                                      '_ZNSt17basic_string_viewIcSt11char_traitsIcEE13remove_prefixEm' => 1,
                                                      '_ZNSt17basic_string_viewIcSt11char_traitsIcEE13remove_suffixEm' => 1,
                                                      '_ZNSt17basic_string_viewIcSt11char_traitsIcEEC1EPKc' => 1,
                                                      '_ZNSt17basic_string_viewIcSt11char_traitsIcEEC1EPKcm' => 1,
                                                      '_ZNSt17basic_string_viewIcSt11char_traitsIcEEC1Ev' => 1,
                                                      '_ZNSt17basic_string_viewIcSt11char_traitsIcEEC1IPKcS5_EET_T0_' => 1,
                                                      '_ZNSt17basic_string_viewIcSt11char_traitsIcEEC1IPcS4_EET_T0_' => 1,
                                                      '_ZNSt17basic_string_viewIcSt11char_traitsIcEEC2EPKc' => 1,
                                                      '_ZNSt17basic_string_viewIcSt11char_traitsIcEEC2EPKcm' => 1,
                                                      '_ZNSt17basic_string_viewIcSt11char_traitsIcEEC2Ev' => 1,
                                                      '_ZNSt17basic_string_viewIcSt11char_traitsIcEEC2IPKcS5_EET_T0_' => 1,
                                                      '_ZNSt17basic_string_viewIcSt11char_traitsIcEEC2IPcS4_EET_T0_' => 1,
                                                      '_ZNSt18_Rb_tree_node_base10_S_maximumEPS_' => 1,
                                                      '_ZNSt18_Rb_tree_node_base10_S_minimumEPS_' => 1,
                                                      '_ZNSt19_UninitDestroyGuardIPhvE7releaseEv' => 1,
                                                      '_ZNSt19_UninitDestroyGuardIPhvEC1ERS0_' => 1,
                                                      '_ZNSt19_UninitDestroyGuardIPhvEC2ERS0_' => 1,
                                                      '_ZNSt19_UninitDestroyGuardIPhvED1Ev' => 1,
                                                      '_ZNSt19_UninitDestroyGuardIPhvED2Ev' => 1,
                                                      '_ZNSt19_UninitDestroyGuardIPmvE7releaseEv' => 1,
                                                      '_ZNSt19_UninitDestroyGuardIPmvEC1ERS0_' => 1,
                                                      '_ZNSt19_UninitDestroyGuardIPmvEC2ERS0_' => 1,
                                                      '_ZNSt19_UninitDestroyGuardIPmvED1Ev' => 1,
                                                      '_ZNSt19_UninitDestroyGuardIPmvED2Ev' => 1,
                                                      '_ZNSt19__ptr_traits_ptr_toIPKcS0_Lb0EE10pointer_toERS0_' => 1,
                                                      '_ZNSt19__ptr_traits_ptr_toIPccLb0EE10pointer_toERc' => 1,
                                                      '_ZNSt19bad_expected_accessINSt7__cxx1112basic_stringIcSt11char_traitsIcESaIcEEEEC1ES5_' => 1,
                                                      '_ZNSt19bad_expected_accessINSt7__cxx1112basic_stringIcSt11char_traitsIcESaIcEEEEC2ES5_' => 1,
                                                      '_ZNSt19bad_expected_accessINSt7__cxx1112basic_stringIcSt11char_traitsIcESaIcEEEED0Ev' => 1,
                                                      '_ZNSt19bad_expected_accessINSt7__cxx1112basic_stringIcSt11char_traitsIcESaIcEEEED1Ev' => 1,
                                                      '_ZNSt19bad_expected_accessINSt7__cxx1112basic_stringIcSt11char_traitsIcESaIcEEEED2Ev' => 1,
                                                      '_ZNSt19bad_expected_accessIvEC1Ev' => 1,
                                                      '_ZNSt19bad_expected_accessIvEC2Ev' => 1,
                                                      '_ZNSt19bad_expected_accessIvED0Ev' => 1,
                                                      '_ZNSt19bad_expected_accessIvED1Ev' => 1,
                                                      '_ZNSt19bad_expected_accessIvED2Ev' => 1,
                                                      '_ZNSt20_Rb_tree_key_compareISt4lessItEEC1ERKS1_' => 1,
                                                      '_ZNSt20_Rb_tree_key_compareISt4lessItEEC1Ev' => 1,
                                                      '_ZNSt20_Rb_tree_key_compareISt4lessItEEC2ERKS1_' => 1,
                                                      '_ZNSt20_Rb_tree_key_compareISt4lessItEEC2Ev' => 1,
                                                      '_ZNSt20basic_format_contextINSt8__format10_Sink_iterIcEEcE10advance_toES2_' => 1,
                                                      '_ZNSt20basic_format_contextINSt8__format10_Sink_iterIcEEcE3outEv' => 1,
                                                      '_ZNSt20basic_format_contextINSt8__format10_Sink_iterIcEEcE6localeEv' => 1,
                                                      '_ZNSt20basic_format_contextINSt8__format10_Sink_iterIcEEcEC1ESt17basic_format_argsIS3_ES2_' => 1,
                                                      '_ZNSt20basic_format_contextINSt8__format10_Sink_iterIcEEcEC1ESt17basic_format_argsIS3_ES2_RKSt6locale' => 1,
                                                      '_ZNSt20basic_format_contextINSt8__format10_Sink_iterIcEEcEC2ESt17basic_format_argsIS3_ES2_' => 1,
                                                      '_ZNSt20basic_format_contextINSt8__format10_Sink_iterIcEEcEC2ESt17basic_format_argsIS3_ES2_RKSt6locale' => 1,
                                                      '_ZNSt20basic_format_contextINSt8__format10_Sink_iterIcEEcED1Ev' => 1,
                                                      '_ZNSt20basic_format_contextINSt8__format10_Sink_iterIcEEcED2Ev' => 1,
                                                      '_ZNSt22_Optional_payload_baseINSt7__cxx1112basic_stringIcSt11char_traitsIcESaIcEEEE10_M_destroyEv' => 1,
                                                      '_ZNSt22_Optional_payload_baseINSt7__cxx1112basic_stringIcSt11char_traitsIcESaIcEEEE12_M_constructIJRKS5_EEEvDpOT_' => 1,
                                                      '_ZNSt22_Optional_payload_baseINSt7__cxx1112basic_stringIcSt11char_traitsIcESaIcEEEE8_M_resetEv' => 1,
                                                      '_ZNSt22_Optional_payload_baseINSt7__cxx1112basic_stringIcSt11char_traitsIcESaIcEEEE8_StorageIS5_Lb0EEC1Ev' => 1,
                                                      '_ZNSt22_Optional_payload_baseINSt7__cxx1112basic_stringIcSt11char_traitsIcESaIcEEEE8_StorageIS5_Lb0EEC1IJRKS5_EEESt10in_place_tDpOT_' => 1,
                                                      '_ZNSt22_Optional_payload_baseINSt7__cxx1112basic_stringIcSt11char_traitsIcESaIcEEEE8_StorageIS5_Lb0EEC2Ev' => 1,
                                                      '_ZNSt22_Optional_payload_baseINSt7__cxx1112basic_stringIcSt11char_traitsIcESaIcEEEE8_StorageIS5_Lb0EEC2IJRKS5_EEESt10in_place_tDpOT_' => 1,
                                                      '_ZNSt22_Optional_payload_baseINSt7__cxx1112basic_stringIcSt11char_traitsIcESaIcEEEE8_StorageIS5_Lb0EED1Ev' => 1,
                                                      '_ZNSt22_Optional_payload_baseINSt7__cxx1112basic_stringIcSt11char_traitsIcESaIcEEEE8_StorageIS5_Lb0EED1EvQnt27is_trivially_destructible_vITL0__E' => 1,
                                                      '_ZNSt22_Optional_payload_baseINSt7__cxx1112basic_stringIcSt11char_traitsIcESaIcEEEE8_StorageIS5_Lb0EED2Ev' => 1,
                                                      '_ZNSt22_Optional_payload_baseINSt7__cxx1112basic_stringIcSt11char_traitsIcESaIcEEEE8_StorageIS5_Lb0EED2EvQnt27is_trivially_destructible_vITL0__E' => 1,
                                                      '_ZNSt22_Optional_payload_baseINSt7__cxx1112basic_stringIcSt11char_traitsIcESaIcEEEEC1EbRKS6_' => 1,
                                                      '_ZNSt22_Optional_payload_baseINSt7__cxx1112basic_stringIcSt11char_traitsIcESaIcEEEEC1Ev' => 1,
                                                      '_ZNSt22_Optional_payload_baseINSt7__cxx1112basic_stringIcSt11char_traitsIcESaIcEEEEC1IJRKS5_EEESt10in_place_tDpOT_' => 1,
                                                      '_ZNSt22_Optional_payload_baseINSt7__cxx1112basic_stringIcSt11char_traitsIcESaIcEEEEC2EbRKS6_' => 1,
                                                      '_ZNSt22_Optional_payload_baseINSt7__cxx1112basic_stringIcSt11char_traitsIcESaIcEEEEC2Ev' => 1,
                                                      '_ZNSt22_Optional_payload_baseINSt7__cxx1112basic_stringIcSt11char_traitsIcESaIcEEEEC2IJRKS5_EEESt10in_place_tDpOT_' => 1,
                                                      '_ZNSt22_Optional_payload_baseINSt7__cxx1112basic_stringIcSt11char_traitsIcESaIcEEEED1Ev' => 1,
                                                      '_ZNSt22_Optional_payload_baseINSt7__cxx1112basic_stringIcSt11char_traitsIcESaIcEEEED2Ev' => 1,
                                                      '_ZNSt22_Optional_payload_baseIiE8_StorageIiLb1EEC1Ev' => 1,
                                                      '_ZNSt22_Optional_payload_baseIiE8_StorageIiLb1EEC1IJRiEEESt10in_place_tDpOT_' => 1,
                                                      '_ZNSt22_Optional_payload_baseIiE8_StorageIiLb1EEC2Ev' => 1,
                                                      '_ZNSt22_Optional_payload_baseIiE8_StorageIiLb1EEC2IJRiEEESt10in_place_tDpOT_' => 1,
                                                      '_ZNSt22_Optional_payload_baseIiEC1Ev' => 1,
                                                      '_ZNSt22_Optional_payload_baseIiEC1IJRiEEESt10in_place_tDpOT_' => 1,
                                                      '_ZNSt22_Optional_payload_baseIiEC2Ev' => 1,
                                                      '_ZNSt22_Optional_payload_baseIiEC2IJRiEEESt10in_place_tDpOT_' => 1,
                                                      '_ZNSt26basic_format_parse_contextIcE10advance_toEPKc' => 1,
                                                      '_ZNSt26basic_format_parse_contextIcE11next_arg_idEv' => 1,
                                                      '_ZNSt26basic_format_parse_contextIcE12check_arg_idEm' => 1,
                                                      '_ZNSt26basic_format_parse_contextIcEC1ESt17basic_string_viewIcSt11char_traitsIcEEm' => 1,
                                                      '_ZNSt26basic_format_parse_contextIcEC2ESt17basic_string_viewIcSt11char_traitsIcEEm' => 1,
                                                      '_ZNSt4pairIPSt18_Rb_tree_node_baseS1_EC1IRS1_S1_EEOT_OT0_' => 1,
                                                      '_ZNSt4pairIPSt18_Rb_tree_node_baseS1_EC1IRS1_S4_EEOT_OT0_' => 1,
                                                      '_ZNSt4pairIPSt18_Rb_tree_node_baseS1_EC1IS1_RS1_EEOT_OT0_' => 1,
                                                      '_ZNSt4pairIPSt18_Rb_tree_node_baseS1_EC1IS1_S1_EERS_IT_T0_E' => 1,
                                                      '_ZNSt4pairIPSt18_Rb_tree_node_baseS1_EC2IRS1_S1_EEOT_OT0_' => 1,
                                                      '_ZNSt4pairIPSt18_Rb_tree_node_baseS1_EC2IRS1_S4_EEOT_OT0_' => 1,
                                                      '_ZNSt4pairIPSt18_Rb_tree_node_baseS1_EC2IS1_RS1_EEOT_OT0_' => 1,
                                                      '_ZNSt4pairIPSt18_Rb_tree_node_baseS1_EC2IS1_S1_EERS_IT_T0_E' => 1,
                                                      '_ZNSt4pairItPKcEC1ERKtRKS1_' => 1,
                                                      '_ZNSt4pairItPKcEC1ERKtRKS1_Qcl16_S_constructibleIRKT_RKT0_EE' => 1,
                                                      '_ZNSt4pairItPKcEC1IRtRS1_EEOT_OT0_' => 1,
                                                      '_ZNSt4pairItPKcEC1IiDnEEOT_OT0_' => 1,
                                                      '_ZNSt4pairItPKcEC1IiS1_EEOT_OT0_' => 1,
                                                      '_ZNSt4pairItPKcEC2ERKtRKS1_' => 1,
                                                      '_ZNSt4pairItPKcEC2ERKtRKS1_Qcl16_S_constructibleIRKT_RKT0_EE' => 1,
                                                      '_ZNSt4pairItPKcEC2IRtRS1_EEOT_OT0_' => 1,
                                                      '_ZNSt4pairItPKcEC2IiDnEEOT_OT0_' => 1,
                                                      '_ZNSt4pairItPKcEC2IiS1_EEOT_OT0_' => 1,
                                                      '_ZNSt4spanIcLm18446744073709551615EEC1ILm12EEERAT__c' => 1,
                                                      '_ZNSt4spanIcLm18446744073709551615EEC1ILm256EEERAT__c' => 1,
                                                      '_ZNSt4spanIcLm18446744073709551615EEC1IPcEET_m' => 1,
                                                      '_ZNSt4spanIcLm18446744073709551615EEC1IRNSt7__cxx1112basic_stringIcSt11char_traitsIcESaIcEEEEEOT_' => 1,
                                                      '_ZNSt4spanIcLm18446744073709551615EEC2ILm12EEERAT__c' => 1,
                                                      '_ZNSt4spanIcLm18446744073709551615EEC2ILm256EEERAT__c' => 1,
                                                      '_ZNSt4spanIcLm18446744073709551615EEC2IPcEET_m' => 1,
                                                      '_ZNSt4spanIcLm18446744073709551615EEC2IRNSt7__cxx1112basic_stringIcSt11char_traitsIcESaIcEEEEEOT_' => 1,
                                                      '_ZNSt5arrayIDiLm1EEixEm' => 1,
                                                      '_ZNSt5arrayIcLm4EEixEm' => 1,
                                                      '_ZNSt6bitsetILm16EEC1Ey' => 1,
                                                      '_ZNSt6bitsetILm16EEC2Ey' => 1,
                                                      '_ZNSt6bitsetILm32EEC1Ey' => 1,
                                                      '_ZNSt6bitsetILm32EEC2Ey' => 1,
                                                      '_ZNSt6ranges14__copy_or_moveILb0EN9__gnu_cxx17__normal_iteratorIPcNSt4spanIcLm18446744073709551615EE10__iter_tagEEES7_NSt8__format10_Sink_iterIcEEEENSt13__conditionalIXT_EE4typeINS_13in_out_resultIT0_T2_EESH_EESF_T1_SG_' => 1,
                                                      '_ZNSt6ranges14__copy_or_moveILb0EPcS1_NSt8__format10_Sink_iterIcEEEENSt13__conditionalIXT_EE4typeINS_13in_out_resultIT0_T2_EESB_EES9_T1_SA_' => 1,
                                                      '_ZNSt6ranges8subrangeIPKcS2_LNS_13subrange_kindE1EEC1IS2_EET_S2_' => 1,
                                                      '_ZNSt6ranges8subrangeIPKcS2_LNS_13subrange_kindE1EEC1IS2_EET_S2_QntL_ZNS0_IS6_T0_XT1_EE13_S_store_sizeEE' => 1,
                                                      '_ZNSt6ranges8subrangeIPKcS2_LNS_13subrange_kindE1EEC2IS2_EET_S2_' => 1,
                                                      '_ZNSt6ranges8subrangeIPKcS2_LNS_13subrange_kindE1EEC2IS2_EET_S2_QntL_ZNS0_IS6_T0_XT1_EE13_S_store_sizeEE' => 1,
                                                      '_ZNSt6vectorIS_ImSaImEESaIS1_EE11_S_max_sizeERKS2_' => 1,
                                                      '_ZNSt6vectorIS_ImSaImEESaIS1_EE11_S_relocateEPS1_S4_S4_RS2_' => 1,
                                                      '_ZNSt6vectorIS_ImSaImEESaIS1_EE12_Guard_allocC1EPS1_mRSt12_Vector_baseIS1_S2_E' => 1,
                                                      '_ZNSt6vectorIS_ImSaImEESaIS1_EE12_Guard_allocC2EPS1_mRSt12_Vector_baseIS1_S2_E' => 1,
                                                      '_ZNSt6vectorIS_ImSaImEESaIS1_EE12_Guard_allocD1Ev' => 1,
                                                      '_ZNSt6vectorIS_ImSaImEESaIS1_EE12_Guard_allocD2Ev' => 1,
                                                      '_ZNSt6vectorIS_ImSaImEESaIS1_EE17_M_realloc_appendIJRKS1_EEEvDpOT_' => 1,
                                                      '_ZNSt6vectorIS_ImSaImEESaIS1_EE3endEv' => 1,
                                                      '_ZNSt6vectorIS_ImSaImEESaIS1_EE5beginEv' => 1,
                                                      '_ZNSt6vectorIS_ImSaImEESaIS1_EE9push_backERKS1_' => 1,
                                                      '_ZNSt6vectorIS_ImSaImEESaIS1_EED1Ev' => 1,
                                                      '_ZNSt6vectorIS_ImSaImEESaIS1_EED2Ev' => 1,
                                                      '_ZNSt6vectorIhSaIhEE11_S_max_sizeERKS0_' => 1,
                                                      '_ZNSt6vectorIhSaIhEE14_M_move_assignEOS1_St17integral_constantIbLb1EE' => 1,
                                                      '_ZNSt6vectorIhSaIhEE17_S_check_init_lenEmRKS0_' => 1,
                                                      '_ZNSt6vectorIhSaIhEE21_M_range_initialize_nIPKhS4_EEvT_T0_m' => 1,
                                                      '_ZNSt6vectorIhSaIhEEC1ERKS0_' => 1,
                                                      '_ZNSt6vectorIhSaIhEEC1ERKS1_' => 1,
                                                      '_ZNSt6vectorIhSaIhEEC1Ev' => 1,
                                                      '_ZNSt6vectorIhSaIhEEC1IPKhvEET_S5_RKS0_' => 1,
                                                      '_ZNSt6vectorIhSaIhEEC2ERKS0_' => 1,
                                                      '_ZNSt6vectorIhSaIhEEC2ERKS1_' => 1,
                                                      '_ZNSt6vectorIhSaIhEEC2Ev' => 1,
                                                      '_ZNSt6vectorIhSaIhEEC2IPKhvEET_S5_RKS0_' => 1,
                                                      '_ZNSt6vectorIhSaIhEED1Ev' => 1,
                                                      '_ZNSt6vectorIhSaIhEED2Ev' => 1,
                                                      '_ZNSt6vectorIhSaIhEEaSEOS1_' => 1,
                                                      '_ZNSt6vectorImSaImEE11_S_max_sizeERKS0_' => 1,
                                                      '_ZNSt6vectorImSaImEE11_S_relocateEPmS2_S2_RS0_' => 1,
                                                      '_ZNSt6vectorImSaImEE12_Guard_allocC1EPmmRSt12_Vector_baseImS0_E' => 1,
                                                      '_ZNSt6vectorImSaImEE12_Guard_allocC2EPmmRSt12_Vector_baseImS0_E' => 1,
                                                      '_ZNSt6vectorImSaImEE12_Guard_allocD1Ev' => 1,
                                                      '_ZNSt6vectorImSaImEE12_Guard_allocD2Ev' => 1,
                                                      '_ZNSt6vectorImSaImEE12emplace_backIJRmEEES3_DpOT_' => 1,
                                                      '_ZNSt6vectorImSaImEE17_M_realloc_appendIJRmEEEvDpOT_' => 1,
                                                      '_ZNSt6vectorImSaImEE3endEv' => 1,
                                                      '_ZNSt6vectorImSaImEE4backEv' => 1,
                                                      '_ZNSt6vectorImSaImEE5beginEv' => 1,
                                                      '_ZNSt6vectorImSaImEEC1EOS1_' => 1,
                                                      '_ZNSt6vectorImSaImEEC1ERKS1_' => 1,
                                                      '_ZNSt6vectorImSaImEEC1Ev' => 1,
                                                      '_ZNSt6vectorImSaImEEC2EOS1_' => 1,
                                                      '_ZNSt6vectorImSaImEEC2ERKS1_' => 1,
                                                      '_ZNSt6vectorImSaImEEC2Ev' => 1,
                                                      '_ZNSt6vectorImSaImEED1Ev' => 1,
                                                      '_ZNSt6vectorImSaImEED2Ev' => 1,
                                                      '_ZNSt6vectorItSaItEE11_S_max_sizeERKS0_' => 1,
                                                      '_ZNSt6vectorItSaItEE11_S_relocateEPtS2_S2_RS0_' => 1,
                                                      '_ZNSt6vectorItSaItEE12_Guard_allocC1EPtmRSt12_Vector_baseItS0_E' => 1,
                                                      '_ZNSt6vectorItSaItEE12_Guard_allocC2EPtmRSt12_Vector_baseItS0_E' => 1,
                                                      '_ZNSt6vectorItSaItEE12_Guard_allocD1Ev' => 1,
                                                      '_ZNSt6vectorItSaItEE12_Guard_allocD2Ev' => 1,
                                                      '_ZNSt6vectorItSaItEE12emplace_backIJRKtEEERtDpOT_' => 1,
                                                      '_ZNSt6vectorItSaItEE17_M_realloc_appendIJRKtEEEvDpOT_' => 1,
                                                      '_ZNSt6vectorItSaItEE3endEv' => 1,
                                                      '_ZNSt6vectorItSaItEE4backEv' => 1,
                                                      '_ZNSt6vectorItSaItEE5beginEv' => 1,
                                                      '_ZNSt6vectorItSaItEE7reserveEm' => 1,
                                                      '_ZNSt6vectorItSaItEED1Ev' => 1,
                                                      '_ZNSt6vectorItSaItEED2Ev' => 1,
                                                      '_ZNSt7__cxx1112basic_stringIcSt11char_traitsIcESaIcEE10_M_destroyEm' => 1,
                                                      '_ZNSt7__cxx1112basic_stringIcSt11char_traitsIcESaIcEE10_M_disposeEv' => 1,
                                                      '_ZNSt7__cxx1112basic_stringIcSt11char_traitsIcESaIcEE10_M_replaceEmmPKcm' => 1,
                                                      '_ZNSt7__cxx1112basic_stringIcSt11char_traitsIcESaIcEE11_M_capacityEm' => 1,
                                                      '_ZNSt7__cxx1112basic_stringIcSt11char_traitsIcESaIcEE11_S_allocateERS3_m' => 1,
                                                      '_ZNSt7__cxx1112basic_stringIcSt11char_traitsIcESaIcEE12_Alloc_hiderC1EPcOS3_' => 1,
                                                      '_ZNSt7__cxx1112basic_stringIcSt11char_traitsIcESaIcEE12_Alloc_hiderC1EPcRKS3_' => 1,
                                                      '_ZNSt7__cxx1112basic_stringIcSt11char_traitsIcESaIcEE12_Alloc_hiderC2EPcOS3_' => 1,
                                                      '_ZNSt7__cxx1112basic_stringIcSt11char_traitsIcESaIcEE12_Alloc_hiderC2EPcRKS3_' => 1,
                                                      '_ZNSt7__cxx1112basic_stringIcSt11char_traitsIcESaIcEE12_Alloc_hiderD1Ev' => 1,
                                                      '_ZNSt7__cxx1112basic_stringIcSt11char_traitsIcESaIcEE12_Alloc_hiderD2Ev' => 1,
                                                      '_ZNSt7__cxx1112basic_stringIcSt11char_traitsIcESaIcEE12_M_constructEmc' => 1,
                                                      '_ZNSt7__cxx1112basic_stringIcSt11char_traitsIcESaIcEE12_M_constructILb1EEEvPKcm' => 1,
                                                      '_ZNSt7__cxx1112basic_stringIcSt11char_traitsIcESaIcEE12_M_constructINSt9__unicode13_Utf_iteratorIDicPKDiS9_NS6_5_ReplEEEEEvT_SC_St18input_iterator_tag' => 1,
                                                      '_ZNSt7__cxx1112basic_stringIcSt11char_traitsIcESaIcEE12_M_constructIPKcEEvT_S8_St20forward_iterator_tag' => 1,
                                                      '_ZNSt7__cxx1112basic_stringIcSt11char_traitsIcESaIcEE13_M_local_dataEv' => 1,
                                                      '_ZNSt7__cxx1112basic_stringIcSt11char_traitsIcESaIcEE13_M_set_lengthEm' => 1,
                                                      '_ZNSt7__cxx1112basic_stringIcSt11char_traitsIcESaIcEE13_S_copy_charsIPKcEEvPcT_S9_' => 1,
                                                      '_ZNSt7__cxx1112basic_stringIcSt11char_traitsIcESaIcEE14_M_replace_auxEmmmc' => 1,
                                                      '_ZNSt7__cxx1112basic_stringIcSt11char_traitsIcESaIcEE15_M_replace_coldEPcmPKcmm' => 1,
                                                      '_ZNSt7__cxx1112basic_stringIcSt11char_traitsIcESaIcEE16_M_get_allocatorEv' => 1,
                                                      '_ZNSt7__cxx1112basic_stringIcSt11char_traitsIcESaIcEE20resize_and_overwriteIRZNKSt8__format14__formatter_fpIcE11_M_localizeESt17basic_string_viewIcS2_EcRKSt6localeEUlPcmE_EEvmT_' => 1,
                                                      '_ZNSt7__cxx1112basic_stringIcSt11char_traitsIcESaIcEE20resize_and_overwriteIRZNKSt8__format14__formatter_fpIcE6formatIDF128_NS6_10_Sink_iterIcEEEENSt20basic_format_contextIT0_cE8iteratorET_RSE_EUlPcmE0_EEvmSG_' => 1,
                                                      '_ZNSt7__cxx1112basic_stringIcSt11char_traitsIcESaIcEE20resize_and_overwriteIRZNKSt8__format14__formatter_fpIcE6formatIDF128_NS6_10_Sink_iterIcEEEENSt20basic_format_contextIT0_cE8iteratorET_RSE_EUlPcmE_EEvmSG_' => 1,
                                                      '_ZNSt7__cxx1112basic_stringIcSt11char_traitsIcESaIcEE20resize_and_overwriteIRZNKSt8__format14__formatter_fpIcE6formatIdNS6_10_Sink_iterIcEEEENSt20basic_format_contextIT0_cE8iteratorET_RSE_EUlPcmE0_EEvmSG_' => 1,
                                                      '_ZNSt7__cxx1112basic_stringIcSt11char_traitsIcESaIcEE20resize_and_overwriteIRZNKSt8__format14__formatter_fpIcE6formatIdNS6_10_Sink_iterIcEEEENSt20basic_format_contextIT0_cE8iteratorET_RSE_EUlPcmE_EEvmSG_' => 1,
                                                      '_ZNSt7__cxx1112basic_stringIcSt11char_traitsIcESaIcEE20resize_and_overwriteIRZNKSt8__format14__formatter_fpIcE6formatIeNS6_10_Sink_iterIcEEEENSt20basic_format_contextIT0_cE8iteratorET_RSE_EUlPcmE0_EEvmSG_' => 1,
                                                      '_ZNSt7__cxx1112basic_stringIcSt11char_traitsIcESaIcEE20resize_and_overwriteIRZNKSt8__format14__formatter_fpIcE6formatIeNS6_10_Sink_iterIcEEEENSt20basic_format_contextIT0_cE8iteratorET_RSE_EUlPcmE_EEvmSG_' => 1,
                                                      '_ZNSt7__cxx1112basic_stringIcSt11char_traitsIcESaIcEE20resize_and_overwriteIRZNKSt8__format14__formatter_fpIcE6formatIfNS6_10_Sink_iterIcEEEENSt20basic_format_contextIT0_cE8iteratorET_RSE_EUlPcmE0_EEvmSG_' => 1,
                                                      '_ZNSt7__cxx1112basic_stringIcSt11char_traitsIcESaIcEE20resize_and_overwriteIRZNKSt8__format14__formatter_fpIcE6formatIfNS6_10_Sink_iterIcEEEENSt20basic_format_contextIT0_cE8iteratorET_RSE_EUlPcmE_EEvmSG_' => 1,
                                                      '_ZNSt7__cxx1112basic_stringIcSt11char_traitsIcESaIcEE20resize_and_overwriteIRZNSt8__format9_Seq_sinkIS4_E10_M_reserveEmEUlT_T0_E_EEvmS9_' => 1,
                                                      '_ZNSt7__cxx1112basic_stringIcSt11char_traitsIcESaIcEE4dataEv' => 1,
                                                      '_ZNSt7__cxx1112basic_stringIcSt11char_traitsIcESaIcEE5clearEv' => 1,
                                                      '_ZNSt7__cxx1112basic_stringIcSt11char_traitsIcESaIcEE6appendEPKcm' => 1,
                                                      '_ZNSt7__cxx1112basic_stringIcSt11char_traitsIcESaIcEE6appendEmc' => 1,
                                                      '_ZNSt7__cxx1112basic_stringIcSt11char_traitsIcESaIcEE6appendISt17basic_string_viewIcS2_EEENSt9enable_ifIXsrSt6__and_IJSt14is_convertibleIRKT_S7_ESt6__not_ISA_IPSC_PKS4_EESF_ISA_ISD_PKcEEEE5valueERS4_E4typeESD_' => 1,
                                                      '_ZNSt7__cxx1112basic_stringIcSt11char_traitsIcESaIcEE6assignEPKc' => 1,
                                                      '_ZNSt7__cxx1112basic_stringIcSt11char_traitsIcESaIcEE6assignEPKcm' => 1,
                                                      '_ZNSt7__cxx1112basic_stringIcSt11char_traitsIcESaIcEE6assignISt17basic_string_viewIcS2_EEENSt9enable_ifIXsrSt6__and_IJSt14is_convertibleIRKT_S7_ESt6__not_ISA_IPSC_PKS4_EESF_ISA_ISD_PKcEEEE5valueERS4_E4typeESD_' => 1,
                                                      '_ZNSt7__cxx1112basic_stringIcSt11char_traitsIcESaIcEE6insertEmmc' => 1,
                                                      '_ZNSt7__cxx1112basic_stringIcSt11char_traitsIcESaIcEE6resizeEm' => 1,
                                                      '_ZNSt7__cxx1112basic_stringIcSt11char_traitsIcESaIcEE6resizeEmc' => 1,
                                                      '_ZNSt7__cxx1112basic_stringIcSt11char_traitsIcESaIcEE7_M_dataEPc' => 1,
                                                      '_ZNSt7__cxx1112basic_stringIcSt11char_traitsIcESaIcEE7_S_copyEPcPKcm' => 1,
                                                      '_ZNSt7__cxx1112basic_stringIcSt11char_traitsIcESaIcEE7_S_moveEPcPKcm' => 1,
                                                      '_ZNSt7__cxx1112basic_stringIcSt11char_traitsIcESaIcEE7reserveEm' => 1,
                                                      '_ZNSt7__cxx1112basic_stringIcSt11char_traitsIcESaIcEE9_M_appendEPKcm' => 1,
                                                      '_ZNSt7__cxx1112basic_stringIcSt11char_traitsIcESaIcEE9_M_assignERKS4_' => 1,
                                                      '_ZNSt7__cxx1112basic_stringIcSt11char_traitsIcESaIcEE9_M_createERmm' => 1,
                                                      '_ZNSt7__cxx1112basic_stringIcSt11char_traitsIcESaIcEE9_M_lengthEm' => 1,
                                                      '_ZNSt7__cxx1112basic_stringIcSt11char_traitsIcESaIcEE9_M_mutateEmmPKcm' => 1,
                                                      '_ZNSt7__cxx1112basic_stringIcSt11char_traitsIcESaIcEE9_S_assignEPcmc' => 1,
                                                      '_ZNSt7__cxx1112basic_stringIcSt11char_traitsIcESaIcEE9push_backEc' => 1,
                                                      '_ZNSt7__cxx1112basic_stringIcSt11char_traitsIcESaIcEEC1EOS4_' => 1,
                                                      '_ZNSt7__cxx1112basic_stringIcSt11char_traitsIcESaIcEEC1ERKS4_' => 1,
                                                      '_ZNSt7__cxx1112basic_stringIcSt11char_traitsIcESaIcEEC1Ev' => 1,
                                                      '_ZNSt7__cxx1112basic_stringIcSt11char_traitsIcESaIcEEC1EvQ26is_default_constructible_vIT1_E' => 1,
                                                      '_ZNSt7__cxx1112basic_stringIcSt11char_traitsIcESaIcEEC1INSt9__unicode13_Utf_iteratorIDicPKDiS9_NS6_5_ReplEEEvEET_SC_RKS3_' => 1,
                                                      '_ZNSt7__cxx1112basic_stringIcSt11char_traitsIcESaIcEEC1IS3_EEPKcRKS3_' => 1,
                                                      '_ZNSt7__cxx1112basic_stringIcSt11char_traitsIcESaIcEEC1IS3_EEmcRKS3_' => 1,
                                                      '_ZNSt7__cxx1112basic_stringIcSt11char_traitsIcESaIcEEC2EOS4_' => 1,
                                                      '_ZNSt7__cxx1112basic_stringIcSt11char_traitsIcESaIcEEC2ERKS4_' => 1,
                                                      '_ZNSt7__cxx1112basic_stringIcSt11char_traitsIcESaIcEEC2Ev' => 1,
                                                      '_ZNSt7__cxx1112basic_stringIcSt11char_traitsIcESaIcEEC2EvQ26is_default_constructible_vIT1_E' => 1,
                                                      '_ZNSt7__cxx1112basic_stringIcSt11char_traitsIcESaIcEEC2INSt9__unicode13_Utf_iteratorIDicPKDiS9_NS6_5_ReplEEEvEET_SC_RKS3_' => 1,
                                                      '_ZNSt7__cxx1112basic_stringIcSt11char_traitsIcESaIcEEC2IS3_EEPKcRKS3_' => 1,
                                                      '_ZNSt7__cxx1112basic_stringIcSt11char_traitsIcESaIcEEC2IS3_EEmcRKS3_' => 1,
                                                      '_ZNSt7__cxx1112basic_stringIcSt11char_traitsIcESaIcEED1Ev' => 1,
                                                      '_ZNSt7__cxx1112basic_stringIcSt11char_traitsIcESaIcEED2Ev' => 1,
                                                      '_ZNSt7__cxx1112basic_stringIcSt11char_traitsIcESaIcEEaSEOS4_' => 1,
                                                      '_ZNSt7__cxx1112basic_stringIcSt11char_traitsIcESaIcEEaSEPKc' => 1,
                                                      '_ZNSt7__cxx1112basic_stringIcSt11char_traitsIcESaIcEEaSISt17basic_string_viewIcS2_EEENSt9enable_ifIXsrSt6__and_IJSt14is_convertibleIRKT_S7_ESt6__not_ISA_IPSC_PKS4_EESF_ISA_ISD_PKcEEEE5valueERS4_E4typeESD_' => 1,
                                                      '_ZNSt7__cxx1112basic_stringIcSt11char_traitsIcESaIcEEixEm' => 1,
                                                      '_ZNSt7__cxx1112basic_stringIcSt11char_traitsIcESaIcEEpLEc' => 1,
                                                      '_ZNSt7__equalILb0EE5equalIPKN4pldm9fw_update18ComponentImageInfoES6_EEbT_S7_T0_' => 1,
                                                      '_ZNSt7__equalILb0EE5equalIPKN4pldm9fw_update22FirmwareDeviceIDRecordES6_EEbT_S7_T0_' => 1,
                                                      '_ZNSt7__equalILb0EE5equalISt23_Rb_tree_const_iteratorISt4pairIKtN4pldm9fw_update14DescriptorDataEEES9_EEbT_SA_T0_' => 1,
                                                      '_ZNSt7__equalILb1EE5equalIhEEbPKT_S4_S4_' => 1,
                                                      '_ZNSt7__equalILb1EE5equalImEEbPKT_S4_S4_' => 1,
                                                      '_ZNSt8__detail10__to_charsIjEESt15to_chars_resultPcS2_T_i' => 1,
                                                      '_ZNSt8__detail10__to_charsImEESt15to_chars_resultPcS2_T_i' => 1,
                                                      '_ZNSt8__detail10__to_charsIoEESt15to_chars_resultPcS2_T_i' => 1,
                                                      '_ZNSt8__detail12__to_chars_2IjEESt15to_chars_resultPcS2_T_' => 1,
                                                      '_ZNSt8__detail12__to_chars_2ImEESt15to_chars_resultPcS2_T_' => 1,
                                                      '_ZNSt8__detail12__to_chars_2IoEESt15to_chars_resultPcS2_T_' => 1,
                                                      '_ZNSt8__detail12__to_chars_8IjEESt15to_chars_resultPcS2_T_' => 1,
                                                      '_ZNSt8__detail12__to_chars_8ImEESt15to_chars_resultPcS2_T_' => 1,
                                                      '_ZNSt8__detail12__to_chars_8IoEESt15to_chars_resultPcS2_T_' => 1,
                                                      '_ZNSt8__detail13__to_chars_10IjEESt15to_chars_resultPcS2_T_' => 1,
                                                      '_ZNSt8__detail13__to_chars_10ImEESt15to_chars_resultPcS2_T_' => 1,
                                                      '_ZNSt8__detail13__to_chars_10IoEESt15to_chars_resultPcS2_T_' => 1,
                                                      '_ZNSt8__detail13__to_chars_16IjEESt15to_chars_resultPcS2_T_' => 1,
                                                      '_ZNSt8__detail13__to_chars_16ImEESt15to_chars_resultPcS2_T_' => 1,
                                                      '_ZNSt8__detail13__to_chars_16IoEESt15to_chars_resultPcS2_T_' => 1,
                                                      '_ZNSt8__detail14__to_chars_lenIjEEjT_i' => 1,
                                                      '_ZNSt8__detail14__to_chars_lenImEEjT_i' => 1,
                                                      '_ZNSt8__detail14__to_chars_lenIoEEjT_i' => 1,
                                                      '_ZNSt8__detail14__to_chars_lenIyEEjT_i' => 1,
                                                      '_ZNSt8__detail15__raise_and_addItEEbRT_ih' => 1,
                                                      '_ZNSt8__detail16__to_chars_len_2IjEEjT_' => 1,
                                                      '_ZNSt8__detail16__to_chars_len_2ImEEjT_' => 1,
                                                      '_ZNSt8__detail16__to_chars_len_2IoEEjT_' => 1,
                                                      '_ZNSt8__detail18__from_chars_alnumILb1EtEEbRPKcS2_RT0_i' => 1,
                                                      '_ZNSt8__detail18__to_chars_10_implIjEEvPcjT_' => 1,
                                                      '_ZNSt8__detail18__to_chars_10_implImEEvPcjT_' => 1,
                                                      '_ZNSt8__detail18__to_chars_10_implIoEEvPcjT_' => 1,
                                                      '_ZNSt8__detail18__to_chars_10_implIyEEvPcjT_' => 1,
                                                      '_ZNSt8__detail25__from_chars_alnum_to_valILb0EEEhh' => 1,
                                                      '_ZNSt8__detail25__from_chars_alnum_to_valILb1EEEhh' => 1,
                                                      '_ZNSt8__format10_Arg_storeISt20basic_format_contextINS_10_Sink_iterIcEEcEJjyPKciEE11_S_make_eltIA3_S5_EENS_10_Arg_valueIS4_EERT_' => 1,
                                                      '_ZNSt8__format10_Arg_storeISt20basic_format_contextINS_10_Sink_iterIcEEcEJjyPKciEE11_S_make_eltIiEENS_10_Arg_valueIS4_EERT_' => 1,
                                                      '_ZNSt8__format10_Arg_storeISt20basic_format_contextINS_10_Sink_iterIcEEcEJjyPKciEE11_S_make_eltImEENS_10_Arg_valueIS4_EERT_' => 1,
                                                      '_ZNSt8__format10_Arg_storeISt20basic_format_contextINS_10_Sink_iterIcEEcEJjyPKciEE11_S_make_eltItEENS_10_Arg_valueIS4_EERT_' => 1,
                                                      '_ZNSt8__format10_Iter_sinkIcNS_10_Sink_iterIcEEE11_M_overflowEv' => 1,
                                                      '_ZNSt8__format10__is_digitEc' => 1,
                                                      '_ZNSt8__format10__put_signIhEEPcT_NS_5_SignES1_' => 1,
                                                      '_ZNSt8__format10__put_signIiEEPcT_NS_5_SignES1_' => 1,
                                                      '_ZNSt8__format10__put_signIjEEPcT_NS_5_SignES1_' => 1,
                                                      '_ZNSt8__format10__put_signInEEPcT_NS_5_SignES1_' => 1,
                                                      '_ZNSt8__format10__put_signIoEEPcT_NS_5_SignES1_' => 1,
                                                      '_ZNSt8__format10__put_signIxEEPcT_NS_5_SignES1_' => 1,
                                                      '_ZNSt8__format10__put_signIyEEPcT_NS_5_SignES1_' => 1,
                                                      '_ZNSt8__format11__is_xdigitEc' => 1,
                                                      '_ZNSt8__format14_Fixedbuf_sinkIcE11_M_overflowEv' => 1,
                                                      '_ZNSt8__format14__formatter_fpIcE5parseERSt26basic_format_parse_contextIcE' => 1,
                                                      '_ZNSt8__format14__int_from_argISt20basic_format_contextINS_10_Sink_iterIcEEcEEEmRKSt16basic_format_argIT_E' => 1,
                                                      '_ZNSt8__format14__parse_arg_idIcEESt4pairItPKT_ES4_S4_' => 1,
                                                      '_ZNSt8__format14__write_paddedINS_10_Sink_iterIcEEcEET_S3_St17basic_string_viewIT0_St11char_traitsIS5_EENS_6_AlignEmDi' => 1,
                                                      '_ZNSt8__format15__do_vformat_toINS_10_Sink_iterIcEEcSt20basic_format_contextIS2_cEEET_S5_St17basic_string_viewIT0_St11char_traitsIS7_EERKSt17basic_format_argsIT1_EPKSt6locale' => 1,
                                                      '_ZNSt8__format15__formatter_intIcE11_M_do_parseERSt26basic_format_parse_contextIcENS_10_Pres_typeE' => 1,
                                                      '_ZNSt8__format15__formatter_intIcE15_S_to_characterIhEEcT_' => 1,
                                                      '_ZNSt8__format15__formatter_intIcE15_S_to_characterIiEEcT_' => 1,
                                                      '_ZNSt8__format15__formatter_intIcE15_S_to_characterIjEEcT_' => 1,
                                                      '_ZNSt8__format15__formatter_intIcE15_S_to_characterInEEcT_' => 1,
                                                      '_ZNSt8__format15__formatter_intIcE15_S_to_characterIoEEcT_' => 1,
                                                      '_ZNSt8__format15__formatter_intIcE15_S_to_characterIxEEcT_' => 1,
                                                      '_ZNSt8__format15__formatter_intIcE15_S_to_characterIyEEcT_' => 1,
                                                      '_ZNSt8__format15__formatter_intIcE8_M_parseIbEEPKcRSt26basic_format_parse_contextIcE' => 1,
                                                      '_ZNSt8__format15__formatter_intIcE8_M_parseIcEEPKcRSt26basic_format_parse_contextIcE' => 1,
                                                      '_ZNSt8__format15__formatter_intIcE8_M_parseIiEEPKcRSt26basic_format_parse_contextIcE' => 1,
                                                      '_ZNSt8__format15__formatter_intIcE8_M_parseIjEEPKcRSt26basic_format_parse_contextIcE' => 1,
                                                      '_ZNSt8__format15__formatter_intIcE8_M_parseInEEPKcRSt26basic_format_parse_contextIcE' => 1,
                                                      '_ZNSt8__format15__formatter_intIcE8_M_parseIoEEPKcRSt26basic_format_parse_contextIcE' => 1,
                                                      '_ZNSt8__format15__formatter_intIcE8_M_parseIxEEPKcRSt26basic_format_parse_contextIcE' => 1,
                                                      '_ZNSt8__format15__formatter_intIcE8_M_parseIyEEPKcRSt26basic_format_parse_contextIcE' => 1,
                                                      '_ZNSt8__format15__formatter_intIcE8to_charsIhEESt15to_chars_resultPcS4_T_i' => 1,
                                                      '_ZNSt8__format15__formatter_intIcE8to_charsIjEESt15to_chars_resultPcS4_T_i' => 1,
                                                      '_ZNSt8__format15__formatter_intIcE8to_charsIoEESt15to_chars_resultPcS4_T_i' => 1,
                                                      '_ZNSt8__format15__formatter_intIcE8to_charsIyEESt15to_chars_resultPcS4_T_i' => 1,
                                                      '_ZNSt8__format15__formatter_strIcE5parseERSt26basic_format_parse_contextIcE' => 1,
                                                      '_ZNSt8__format15__formatter_strIcE8_S_truncERSt17basic_string_viewIcSt11char_traitsIcEEm' => 1,
                                                      '_ZNSt8__format15__parse_integerIcEESt4pairItPKT_ES4_S4_' => 1,
                                                      '_ZNSt8__format15__write_escapedIcNS_10_Sink_iterIcEEEET0_S3_St17basic_string_viewIT_St11char_traitsIS5_EENS_10_Term_charE' => 1,
                                                      '_ZNSt8__format16_Optional_locale5valueEv' => 1,
                                                      '_ZNSt8__format16_Optional_localeC1ERKSt6locale' => 1,
                                                      '_ZNSt8__format16_Optional_localeC2ERKSt6locale' => 1,
                                                      '_ZNSt8__format16_Optional_localeD1Ev' => 1,
                                                      '_ZNSt8__format16_Optional_localeD2Ev' => 1,
                                                      '_ZNSt8__format16__pack_arg_typesILi5ELm4EEEDaRKSt5arrayINS_6_Arg_tEXT0_EE' => 1,
                                                      '_ZNSt8__format18__visit_format_argINS_17_WidthPrecVisitorESt20basic_format_contextINS_10_Sink_iterIcEEcEEEDcOT_St16basic_format_argIT0_E' => 1,
                                                      '_ZNSt8__format18__visit_format_argIZNS_15__do_vformat_toINS_10_Sink_iterIcEEcSt20basic_format_contextIS3_cEEET_S6_St17basic_string_viewIT0_St11char_traitsIS8_EERKSt17basic_format_argsIT1_EPKSt6localeEUlRS6_E_S5_EEDcOS6_St16basic_format_argIS8_E' => 1,
                                                      '_ZNSt8__format18__visit_format_argIZNS_19_Formatting_scannerINS_10_Sink_iterIcEEcE13_M_format_argEmEUlRT_E_St20basic_format_contextIS3_cEEEDcOS5_St16basic_format_argIT0_E' => 1,
                                                      '_ZNSt8__format18__write_escape_seqINS_10_Sink_iterIcEEcEET_S3_jSt17basic_string_viewIT0_St11char_traitsIS5_EE' => 1,
                                                      '_ZNSt8__format19_Formatting_scannerINS_10_Sink_iterIcEEcE11_M_on_charsEPKc' => 1,
                                                      '_ZNSt8__format19_Formatting_scannerINS_10_Sink_iterIcEEcE13_M_format_argEm' => 1,
                                                      '_ZNSt8__format19_Formatting_scannerINS_10_Sink_iterIcEEcEC1ERSt20basic_format_contextIS2_cESt17basic_string_viewIcSt11char_traitsIcEE' => 1,
                                                      '_ZNSt8__format19_Formatting_scannerINS_10_Sink_iterIcEEcEC2ERSt20basic_format_contextIS2_cESt17basic_string_viewIcSt11char_traitsIcEE' => 1,
                                                      '_ZNSt8__format20__write_escaped_charINS_10_Sink_iterIcEEcEET_S3_T0_' => 1,
                                                      '_ZNSt8__format21__should_escape_asciiIcEEbT_NS_10_Term_charE' => 1,
                                                      '_ZNSt8__format22__write_padded_as_specIcNS_10_Sink_iterIcEEEET0_St17basic_string_viewINSt13type_identityIT_E4typeESt11char_traitsIS8_EEmRSt20basic_format_contextIS3_S6_ERKNS_5_SpecIS6_EENS_6_AlignE' => 1,
                                                      '_ZNSt8__format23__should_escape_unicodeEDib' => 1,
                                                      '_ZNSt8__format23__write_escaped_unicodeIcNS_10_Sink_iterIcEEEET0_S3_St17basic_string_viewIT_St11char_traitsIS5_EENS_10_Term_charE' => 1,
                                                      '_ZNSt8__format29__failed_to_parse_format_specEv' => 1,
                                                      '_ZNSt8__format33__invalid_arg_id_in_format_stringEv' => 1,
                                                      '_ZNSt8__format39__conflicting_indexing_in_format_stringEv' => 1,
                                                      '_ZNSt8__format39__unmatched_left_brace_in_format_stringEv' => 1,
                                                      '_ZNSt8__format40__unmatched_right_brace_in_format_stringEv' => 1,
                                                      '_ZNSt8__format5_SinkIcE10_M_reserveEm' => 1,
                                                      '_ZNSt8__format5_SinkIcE12_Reservation7_M_bumpEm' => 1,
                                                      '_ZNSt8__format5_SinkIcE7_M_bumpEm' => 1,
                                                      '_ZNSt8__format5_SinkIcE8_M_resetESt4spanIcLm18446744073709551615EEm' => 1,
                                                      '_ZNSt8__format5_SinkIcE8_M_writeESt17basic_string_viewIcSt11char_traitsIcEE' => 1,
                                                      '_ZNSt8__format5_SinkIcE8_M_writeEc' => 1,
                                                      '_ZNSt8__format5_SpecIcE13_M_parse_signEPKcS3_' => 1,
                                                      '_ZNSt8__format5_SpecIcE14_M_parse_widthEPKcS3_RSt26basic_format_parse_contextIcE' => 1,
                                                      '_ZNSt8__format5_SpecIcE15_M_parse_localeEPKcS3_' => 1,
                                                      '_ZNSt8__format5_SpecIcE18_M_parse_precisionEPKcS3_RSt26basic_format_parse_contextIcE' => 1,
                                                      '_ZNSt8__format5_SpecIcE18_M_parse_zero_fillEPKcS3_' => 1,
                                                      '_ZNSt8__format5_SpecIcE23_M_parse_alternate_formEPKcS3_' => 1,
                                                      '_ZNSt8__format5_SpecIcE23_M_parse_fill_and_alignEPKcS3_' => 1,
                                                      '_ZNSt8__format5_SpecIcE23_M_parse_fill_and_alignEPKcS3_St17basic_string_viewIcSt11char_traitsIcEE' => 1,
                                                      '_ZNSt8__format5_SpecIcE27_S_parse_width_or_precisionEPKcS3_RtRbRSt26basic_format_parse_contextIcE' => 1,
                                                      '_ZNSt8__format5_SpecIcE7_S_signEc' => 1,
                                                      '_ZNSt8__format5_SpecIcE8_S_alignEc' => 1,
                                                      '_ZNSt8__format7__writeINS_10_Sink_iterIcEEcEET_S3_St17basic_string_viewIT0_St11char_traitsIS5_EE' => 1,
                                                      '_ZNSt8__format8_EscapesIcE7_S_termENS_10_Term_charE' => 1,
                                                      '_ZNSt8__format8_ScannerIcE11_M_on_charsEPKc' => 1,
                                                      '_ZNSt8__format8_ScannerIcE14_Parse_contextCI1St26basic_format_parse_contextIcEESt17basic_string_viewIcSt11char_traitsIcEEm' => 1,
                                                      '_ZNSt8__format8_ScannerIcE14_Parse_contextCI2St26basic_format_parse_contextIcEESt17basic_string_viewIcSt11char_traitsIcEEm' => 1,
                                                      '_ZNSt8__format8_ScannerIcE23_M_on_replacement_fieldEv' => 1,
                                                      '_ZNSt8__format8_ScannerIcE7_M_scanEv' => 1,
                                                      '_ZNSt8__format8_ScannerIcEC1ESt17basic_string_viewIcSt11char_traitsIcEEm' => 1,
                                                      '_ZNSt8__format8_ScannerIcEC2ESt17basic_string_viewIcSt11char_traitsIcEEm' => 1,
                                                      '_ZNSt8__format9_Seq_sinkINSt7__cxx1112basic_stringIcSt11char_traitsIcESaIcEEEE10_M_reserveEm' => 1,
                                                      '_ZNSt8__format9_Seq_sinkINSt7__cxx1112basic_stringIcSt11char_traitsIcESaIcEEEE11_M_overflowEv' => 1,
                                                      '_ZNSt8__format9_Seq_sinkINSt7__cxx1112basic_stringIcSt11char_traitsIcESaIcEEEE4viewEv' => 1,
                                                      '_ZNSt8__format9_Seq_sinkINSt7__cxx1112basic_stringIcSt11char_traitsIcESaIcEEEE7_M_bumpEm' => 1,
                                                      '_ZNSt8__format9_Seq_sinkINSt7__cxx1112basic_stringIcSt11char_traitsIcESaIcEEEED1Ev' => 1,
                                                      '_ZNSt8__format9_Seq_sinkINSt7__cxx1112basic_stringIcSt11char_traitsIcESaIcEEEED2Ev' => 1,
                                                      '_ZNSt8expectedINSt7__cxx1112basic_stringIcSt11char_traitsIcESaIcEEES5_EC1IPKcEEOSt10unexpectedIT_E' => 1,
                                                      '_ZNSt8expectedINSt7__cxx1112basic_stringIcSt11char_traitsIcESaIcEEES5_EC1IS5_EEOT_' => 1,
                                                      '_ZNSt8expectedINSt7__cxx1112basic_stringIcSt11char_traitsIcESaIcEEES5_EC2IPKcEEOSt10unexpectedIT_E' => 1,
                                                      '_ZNSt8expectedINSt7__cxx1112basic_stringIcSt11char_traitsIcESaIcEEES5_EC2IS5_EEOT_' => 1,
                                                      '_ZNSt8expectedINSt7__cxx1112basic_stringIcSt11char_traitsIcESaIcEEES5_ED1Ev' => 1,
                                                      '_ZNSt8expectedINSt7__cxx1112basic_stringIcSt11char_traitsIcESaIcEEES5_ED1EvQoont27is_trivially_destructible_vIT_Ent27is_trivially_destructible_vIT0_E' => 1,
                                                      '_ZNSt8expectedINSt7__cxx1112basic_stringIcSt11char_traitsIcESaIcEEES5_ED2Ev' => 1,
                                                      '_ZNSt8expectedINSt7__cxx1112basic_stringIcSt11char_traitsIcESaIcEEES5_ED2EvQoont27is_trivially_destructible_vIT_Ent27is_trivially_destructible_vIT0_E' => 1,
                                                      '_ZNSt8expectedIvNSt7__cxx1112basic_stringIcSt11char_traitsIcESaIcEEEEC1Ev' => 1,
                                                      '_ZNSt8expectedIvNSt7__cxx1112basic_stringIcSt11char_traitsIcESaIcEEEEC1IS5_EEOSt10unexpectedIT_E' => 1,
                                                      '_ZNSt8expectedIvNSt7__cxx1112basic_stringIcSt11char_traitsIcESaIcEEEEC2Ev' => 1,
                                                      '_ZNSt8expectedIvNSt7__cxx1112basic_stringIcSt11char_traitsIcESaIcEEEEC2IS5_EEOSt10unexpectedIT_E' => 1,
                                                      '_ZNSt8expectedIvNSt7__cxx1112basic_stringIcSt11char_traitsIcESaIcEEEED1Ev' => 1,
                                                      '_ZNSt8expectedIvNSt7__cxx1112basic_stringIcSt11char_traitsIcESaIcEEEED1EvQnt27is_trivially_destructible_vIT0_E' => 1,
                                                      '_ZNSt8expectedIvNSt7__cxx1112basic_stringIcSt11char_traitsIcESaIcEEEED2Ev' => 1,
                                                      '_ZNSt8expectedIvNSt7__cxx1112basic_stringIcSt11char_traitsIcESaIcEEEED2EvQnt27is_trivially_destructible_vIT0_E' => 1,
                                                      '_ZNSt8optionalINSt7__cxx1112basic_stringIcSt11char_traitsIcESaIcEEEEC1ERKS6_' => 1,
                                                      '_ZNSt8optionalINSt7__cxx1112basic_stringIcSt11char_traitsIcESaIcEEEEC1Ev' => 1,
                                                      '_ZNSt8optionalINSt7__cxx1112basic_stringIcSt11char_traitsIcESaIcEEEEC1IRKS5_EEOT_' => 1,
                                                      '_ZNSt8optionalINSt7__cxx1112basic_stringIcSt11char_traitsIcESaIcEEEEC2ERKS6_' => 1,
                                                      '_ZNSt8optionalINSt7__cxx1112basic_stringIcSt11char_traitsIcESaIcEEEEC2Ev' => 1,
                                                      '_ZNSt8optionalINSt7__cxx1112basic_stringIcSt11char_traitsIcESaIcEEEEC2IRKS5_EEOT_' => 1,
                                                      '_ZNSt8optionalINSt7__cxx1112basic_stringIcSt11char_traitsIcESaIcEEEED1Ev' => 1,
                                                      '_ZNSt8optionalINSt7__cxx1112basic_stringIcSt11char_traitsIcESaIcEEEED2Ev' => 1,
                                                      '_ZNSt8optionalIiEC1Ev' => 1,
                                                      '_ZNSt8optionalIiEC1IRiEEOT_' => 1,
                                                      '_ZNSt8optionalIiEC2Ev' => 1,
                                                      '_ZNSt8optionalIiEC2IRiEEOT_' => 1,
                                                      '_ZNSt9__unicode10__truncateIcEEmRSt17basic_string_viewIT_St11char_traitsIS2_EEm' => 1,
                                                      '_ZNSt9__unicode13_Utf_iteratorIDicPKDiS2_NS_5_ReplEE13_M_read_utf32Ev' => 1,
                                                      '_ZNSt9__unicode13_Utf_iteratorIDicPKDiS2_NS_5_ReplEE15_First_and_currIS2_EC1ES2_S2_' => 1,
                                                      '_ZNSt9__unicode13_Utf_iteratorIDicPKDiS2_NS_5_ReplEE15_First_and_currIS2_EC2ES2_S2_' => 1,
                                                      '_ZNSt9__unicode13_Utf_iteratorIDicPKDiS2_NS_5_ReplEE6_GuardIS2_ED1Ev' => 1,
                                                      '_ZNSt9__unicode13_Utf_iteratorIDicPKDiS2_NS_5_ReplEE6_GuardIS2_ED2Ev' => 1,
                                                      '_ZNSt9__unicode13_Utf_iteratorIDicPKDiS2_NS_5_ReplEE7_M_currEv' => 1,
                                                      '_ZNSt9__unicode13_Utf_iteratorIDicPKDiS2_NS_5_ReplEE7_M_readEv' => 1,
                                                      '_ZNSt9__unicode13_Utf_iteratorIDicPKDiS2_NS_5_ReplEE8_S_errorEv' => 1,
                                                      '_ZNSt9__unicode13_Utf_iteratorIDicPKDiS2_NS_5_ReplEE9_M_updateEDih' => 1,
                                                      '_ZNSt9__unicode13_Utf_iteratorIDicPKDiS2_NS_5_ReplEEC1ES2_S2_S2_' => 1,
                                                      '_ZNSt9__unicode13_Utf_iteratorIDicPKDiS2_NS_5_ReplEEC1ES2_S2_S2_Q22bidirectional_iteratorIT1_E' => 1,
                                                      '_ZNSt9__unicode13_Utf_iteratorIDicPKDiS2_NS_5_ReplEEC2ES2_S2_S2_' => 1,
                                                      '_ZNSt9__unicode13_Utf_iteratorIDicPKDiS2_NS_5_ReplEEC2ES2_S2_S2_Q22bidirectional_iteratorIT1_E' => 1,
                                                      '_ZNSt9__unicode13_Utf_iteratorIDicPKDiS2_NS_5_ReplEEFeqES4_S4_' => 1,
                                                      '_ZNSt9__unicode13_Utf_iteratorIDicPKDiS2_NS_5_ReplEEFeqES4_S4_Qoo16forward_iteratorIT1_ErQS5__Xnefp_fp_E' => 1,
                                                      '_ZNSt9__unicode13_Utf_iteratorIDicPKDiS2_NS_5_ReplEEppEv' => 1,
                                                      '_ZNSt9__unicode13_Utf_iteratorIcDiPKcS2_NS_5_ReplEE12_M_read_utf8Ev' => 1,
                                                      '_ZNSt9__unicode13_Utf_iteratorIcDiPKcS2_NS_5_ReplEE15_First_and_currIS2_EC1ES2_S2_' => 1,
                                                      '_ZNSt9__unicode13_Utf_iteratorIcDiPKcS2_NS_5_ReplEE15_First_and_currIS2_EC2ES2_S2_' => 1,
                                                      '_ZNSt9__unicode13_Utf_iteratorIcDiPKcS2_NS_5_ReplEE6_GuardIS2_ED1Ev' => 1,
                                                      '_ZNSt9__unicode13_Utf_iteratorIcDiPKcS2_NS_5_ReplEE6_GuardIS2_ED2Ev' => 1,
                                                      '_ZNSt9__unicode13_Utf_iteratorIcDiPKcS2_NS_5_ReplEE7_M_currEv' => 1,
                                                      '_ZNSt9__unicode13_Utf_iteratorIcDiPKcS2_NS_5_ReplEE7_M_readEv' => 1,
                                                      '_ZNSt9__unicode13_Utf_iteratorIcDiPKcS2_NS_5_ReplEE8_S_errorEv' => 1,
                                                      '_ZNSt9__unicode13_Utf_iteratorIcDiPKcS2_NS_5_ReplEE9_M_updateEDih' => 1,
                                                      '_ZNSt9__unicode13_Utf_iteratorIcDiPKcS2_NS_5_ReplEEC1ES2_S2_S2_' => 1,
                                                      '_ZNSt9__unicode13_Utf_iteratorIcDiPKcS2_NS_5_ReplEEC1ES2_S2_S2_Q22bidirectional_iteratorIT1_E' => 1,
                                                      '_ZNSt9__unicode13_Utf_iteratorIcDiPKcS2_NS_5_ReplEEC2ES2_S2_S2_' => 1,
                                                      '_ZNSt9__unicode13_Utf_iteratorIcDiPKcS2_NS_5_ReplEEC2ES2_S2_S2_Q22bidirectional_iteratorIT1_E' => 1,
                                                      '_ZNSt9__unicode13_Utf_iteratorIcDiPKcS2_NS_5_ReplEEFeqES4_S4_' => 1,
                                                      '_ZNSt9__unicode13_Utf_iteratorIcDiPKcS2_NS_5_ReplEEFeqES4_S4_Qoo16forward_iteratorIT1_ErQS5__Xnefp_fp_E' => 1,
                                                      '_ZNSt9__unicode13_Utf_iteratorIcDiPKcS2_NS_5_ReplEEppEi' => 1,
                                                      '_ZNSt9__unicode13_Utf_iteratorIcDiPKcS2_NS_5_ReplEEppEv' => 1,
                                                      '_ZNSt9__unicode13__field_widthIcEEmSt17basic_string_viewIT_St11char_traitsIS2_EE' => 1,
                                                      '_ZNSt9__unicode17__is_scalar_valueEDi' => 1,
                                                      '_ZNSt9__unicode21__is_single_code_unitIcEEbDi' => 1,
                                                      '_ZNSt9__unicode9_Utf_viewIDiNSt6ranges8subrangeIPKcS4_LNS1_13subrange_kindE1EEEE5beginEv' => 1,
                                                      '_ZNSt9__unicode9_Utf_viewIDiNSt6ranges8subrangeIPKcS4_LNS1_13subrange_kindE1EEEE8_M_beginIS4_S4_EEDaT_T0_' => 1,
                                                      '_ZNSt9__unicode9_Utf_viewIDiNSt6ranges8subrangeIPKcS4_LNS1_13subrange_kindE1EEEEC1EOS6_' => 1,
                                                      '_ZNSt9__unicode9_Utf_viewIDiNSt6ranges8subrangeIPKcS4_LNS1_13subrange_kindE1EEEEC2EOS6_' => 1,
                                                      '_ZNSt9__unicode9_Utf_viewIDiSt17basic_string_viewIcSt11char_traitsIcEEE3endEv' => 1,
                                                      '_ZNSt9__unicode9_Utf_viewIDiSt17basic_string_viewIcSt11char_traitsIcEEE5beginEv' => 1,
                                                      '_ZNSt9__unicode9_Utf_viewIDiSt17basic_string_viewIcSt11char_traitsIcEEE6_M_endIPKcS8_EEDaT_T0_' => 1,
                                                      '_ZNSt9__unicode9_Utf_viewIDiSt17basic_string_viewIcSt11char_traitsIcEEE8_M_beginIPKcS8_EEDaT_T0_' => 1,
                                                      '_ZNSt9__unicode9_Utf_viewIDiSt17basic_string_viewIcSt11char_traitsIcEEEC1EOS4_' => 1,
                                                      '_ZNSt9__unicode9_Utf_viewIDiSt17basic_string_viewIcSt11char_traitsIcEEEC2EOS4_' => 1,
                                                      '_ZNSt9__unicode9_Utf_viewIcRA1_KDiE3endEv' => 1,
                                                      '_ZNSt9__unicode9_Utf_viewIcRA1_KDiE5beginEv' => 1,
                                                      '_ZNSt9__unicode9_Utf_viewIcRA1_KDiE6_M_endIPS1_S6_EEDaT_T0_' => 1,
                                                      '_ZNSt9__unicode9_Utf_viewIcRA1_KDiE8_M_beginIPS1_S6_EEDaT_T0_' => 1,
                                                      '_ZNSt9__unicode9_Utf_viewIcRA1_KDiEC1ES3_' => 1,
                                                      '_ZNSt9__unicode9_Utf_viewIcRA1_KDiEC2ES3_' => 1,
                                                      '_ZNSt9__unicode9__v16_0_013__field_widthEDi' => 1,
                                                      '_ZNSt9__unicode9__v16_0_015__incb_propertyEDi' => 1,
                                                      '_ZNSt9__unicode9__v16_0_016__is_incb_linkerEDi' => 1,
                                                      '_ZNSt9__unicode9__v16_0_022_Grapheme_cluster_viewISt17basic_string_viewIcSt11char_traitsIcEEE9_IteratorC1ENS_13_Utf_iteratorIcDiPKcSA_NS_5_ReplEEE' => 1,
                                                      '_ZNSt9__unicode9__v16_0_022_Grapheme_cluster_viewISt17basic_string_viewIcSt11char_traitsIcEEE9_IteratorC2ENS_13_Utf_iteratorIcDiPKcSA_NS_5_ReplEEE' => 1,
                                                      '_ZNSt9__unicode9__v16_0_022_Grapheme_cluster_viewISt17basic_string_viewIcSt11char_traitsIcEEE9_IteratorppEv' => 1,
                                                      '_ZNSt9__unicode9__v16_0_022_Grapheme_cluster_viewISt17basic_string_viewIcSt11char_traitsIcEEEC1ES5_' => 1,
                                                      '_ZNSt9__unicode9__v16_0_022_Grapheme_cluster_viewISt17basic_string_viewIcSt11char_traitsIcEEEC2ES5_' => 1,
                                                      '_ZNSt9__unicode9__v16_0_024__should_escape_categoryEDi' => 1,
                                                      '_ZNSt9__unicode9__v16_0_026__is_extended_pictographicEDi' => 1,
                                                      '_ZNSt9__unicode9__v16_0_031_Grapheme_cluster_iterator_base18_M_update_ri_countENS0_13_Gcb_propertyE' => 1,
                                                      '_ZNSt9__unicode9__v16_0_031_Grapheme_cluster_iterator_base20_M_update_incb_stateEDiNS0_13_Gcb_propertyE' => 1,
                                                      '_ZNSt9__unicode9__v16_0_031_Grapheme_cluster_iterator_base26_M_update_xpicto_seq_stateEDiNS0_13_Gcb_propertyE' => 1,
                                                      '_ZNSt9__unicode9__v16_0_031_Grapheme_cluster_iterator_base8_M_resetEDiNS0_13_Gcb_propertyE' => 1,
                                                      '_ZNSt9__unicode9__v16_0_031_Grapheme_cluster_iterator_baseC1Ev' => 1,
                                                      '_ZNSt9__unicode9__v16_0_031_Grapheme_cluster_iterator_baseC2Ev' => 1,
                                                      '_ZNSt9__unicode9__v16_0_033__grapheme_cluster_break_propertyEDi' => 1,
                                                      '_ZNSt9__unicodeeqENS_13_Utf_iteratorIcDiPKcS2_NS_5_ReplEEES2_' => 1,
                                                      '_ZNSt9exceptionC1Ev' => 1,
                                                      '_ZNSt9exceptionC2Ev' => 1,
                                                      '_ZNSt9formatterIPKvcE5parseERSt26basic_format_parse_contextIcE' => 1,
                                                      '_ZNSt9formatterIccE5parseERSt26basic_format_parse_contextIcE' => 1,
                                                      '_ZSt10_ConstructINSt7__cxx1112basic_stringIcSt11char_traitsIcESaIcEEEJRKS5_EEvPT_DpOT0_' => 1,
                                                      '_ZSt10_ConstructIhJRKhEEvPT_DpOT0_' => 1,
                                                      '_ZSt10_ConstructImJRKmEEvPT_DpOT0_' => 1,
                                                      '_ZSt10__sv_checkmmPKc' => 1,
                                                      '_ZSt10destroy_atINSt7__cxx1112basic_stringIcSt11char_traitsIcESaIcEEEEvPT_' => 1,
                                                      '_ZSt10destroy_atISt6vectorImSaImEEEvPT_' => 1,
                                                      '_ZSt10destroy_atIhEvPT_' => 1,
                                                      '_ZSt10destroy_atImEvPT_' => 1,
                                                      '_ZSt10destroy_atItEvPT_' => 1,
                                                      '_ZSt11__bit_widthIjEiT_' => 1,
                                                      '_ZSt11__bit_widthImEiT_' => 1,
                                                      '_ZSt11__bit_widthIoEiT_' => 1,
                                                      '_ZSt11lower_boundIPKjjET_S2_S2_RKT0_' => 1,
                                                      '_ZSt11upper_boundIPKDiDiET_S2_S2_RKT0_' => 1,
                                                      '_ZSt12__equal_aux1IPKhS1_EbT_S2_T0_' => 1,
                                                      '_ZSt12__equal_aux1IPKmS1_EbT_S2_T0_' => 1,
                                                      '_ZSt12__relocate_aIPSt6vectorImSaImEES3_SaIS2_EET0_T_S6_S5_RT1_' => 1,
                                                      '_ZSt12__relocate_aIPmS0_SaImEET0_T_S3_S2_RT1_' => 1,
                                                      '_ZSt12__relocate_aIPtS0_SaItEET0_T_S3_S2_RT1_' => 1,
                                                      '_ZSt12__to_chars_iIhESt15to_chars_resultPcS1_T_i' => 1,
                                                      '_ZSt12__to_chars_iIjESt15to_chars_resultPcS1_T_i' => 1,
                                                      '_ZSt12__to_chars_iImESt15to_chars_resultPcS1_T_i' => 1,
                                                      '_ZSt12__to_chars_iIoESt15to_chars_resultPcS1_T_i' => 1,
                                                      '_ZSt12__to_chars_iIyESt15to_chars_resultPcS1_T_i' => 1,
                                                      '_ZSt12construct_atINSt7__cxx1112basic_stringIcSt11char_traitsIcESaIcEEEJRKS5_EEPT_S9_DpOT0_' => 1,
                                                      '_ZSt12construct_atINSt7__cxx1112basic_stringIcSt11char_traitsIcESaIcEEEJRKS5_EQaant20is_unbounded_array_vIT_ErqXgsnwcvPvLi0E_S8_pispcl7declvalIT0_EEEEEPS8_SB_DpOSA_' => 1,
                                                      '_ZSt12construct_atISt6localeJEEPT_S2_DpOT0_' => 1,
                                                      '_ZSt12construct_atISt6localeJEQaant20is_unbounded_array_vIT_ErqXgsnwcvPvLi0E_S1_pispcl7declvalIT0_EEEEEPS1_S4_DpOS3_' => 1,
                                                      '_ZSt12construct_atISt6vectorImSaImEEJRKS2_EEPT_S6_DpOT0_' => 1,
                                                      '_ZSt12construct_atISt6vectorImSaImEEJRKS2_EQaant20is_unbounded_array_vIT_ErqXgsnwcvPvLi0E_S5_pispcl7declvalIT0_EEEEEPS5_S8_DpOS7_' => 1,
                                                      '_ZSt12construct_atISt6vectorImSaImEEJS2_EEPT_S4_DpOT0_' => 1,
                                                      '_ZSt12construct_atISt6vectorImSaImEEJS2_EQaant20is_unbounded_array_vIT_ErqXgsnwcvPvLi0E_S3_pispcl7declvalIT0_EEEEEPS3_S6_DpOS5_' => 1,
                                                      '_ZSt12construct_atIcJRKcEEPT_S3_DpOT0_' => 1,
                                                      '_ZSt12construct_atIcJRKcEQaant20is_unbounded_array_vIT_ErqXgsnwcvPvLi0E_S2_pispcl7declvalIT0_EEEEEPS2_S5_DpOS4_' => 1,
                                                      '_ZSt12construct_atIcJRcEEPT_S2_DpOT0_' => 1,
                                                      '_ZSt12construct_atIcJRcEQaant20is_unbounded_array_vIT_ErqXgsnwcvPvLi0E_S1_pispcl7declvalIT0_EEEEEPS1_S4_DpOS3_' => 1,
                                                      '_ZSt12construct_atIhJRKhEEPT_S3_DpOT0_' => 1,
                                                      '_ZSt12construct_atIhJRKhEQaant20is_unbounded_array_vIT_ErqXgsnwcvPvLi0E_S2_pispcl7declvalIT0_EEEEEPS2_S5_DpOS4_' => 1,
                                                      '_ZSt12construct_atImJRKmEEPT_S3_DpOT0_' => 1,
                                                      '_ZSt12construct_atImJRKmEQaant20is_unbounded_array_vIT_ErqXgsnwcvPvLi0E_S2_pispcl7declvalIT0_EEEEEPS2_S5_DpOS4_' => 1,
                                                      '_ZSt12construct_atImJRmEEPT_S2_DpOT0_' => 1,
                                                      '_ZSt12construct_atImJRmEQaant20is_unbounded_array_vIT_ErqXgsnwcvPvLi0E_S1_pispcl7declvalIT0_EEEEEPS1_S4_DpOS3_' => 1,
                                                      '_ZSt12construct_atImJmEEPT_S1_DpOT0_' => 1,
                                                      '_ZSt12construct_atImJmEQaant20is_unbounded_array_vIT_ErqXgsnwcvPvLi0E_S0_pispcl7declvalIT0_EEEEEPS0_S3_DpOS2_' => 1,
                                                      '_ZSt12construct_atItJRKtEEPT_S3_DpOT0_' => 1,
                                                      '_ZSt12construct_atItJRKtEQaant20is_unbounded_array_vIT_ErqXgsnwcvPvLi0E_S2_pispcl7declvalIT0_EEEEEPS2_S5_DpOS4_' => 1,
                                                      '_ZSt12construct_atItJtEEPT_S1_DpOT0_' => 1,
                                                      '_ZSt12construct_atItJtEQaant20is_unbounded_array_vIT_ErqXgsnwcvPvLi0E_S0_pispcl7declvalIT0_EEEEEPS0_S3_DpOS2_' => 1,
                                                      '_ZSt13__countl_zeroIjEiT_' => 1,
                                                      '_ZSt13__countl_zeroImEiT_' => 1,
                                                      '_ZSt13__countl_zeroIoEiT_' => 1,
                                                      '_ZSt14__add_groupingIcEPT_S1_S0_PKcmPKS0_S5_' => 1,
                                                      '_ZSt14__relocate_a_1IPSt6vectorImSaImEES3_SaIS2_EET0_T_S6_S5_RT1_' => 1,
                                                      '_ZSt14__relocate_a_1IPmN9__gnu_cxx17__normal_iteratorIS0_vEESaImEET0_T_S6_S5_RT1_' => 1,
                                                      '_ZSt14__relocate_a_1IPtN9__gnu_cxx17__normal_iteratorIS0_vEESaItEET0_T_S6_S5_RT1_' => 1,
                                                      '_ZSt14__relocate_a_1ImmENSt9enable_ifIXsrSt24__is_bitwise_relocatableIT_vE5valueEPS2_E4typeES4_S4_S4_RSaIT0_E' => 1,
                                                      '_ZSt14__relocate_a_1IttENSt9enable_ifIXsrSt24__is_bitwise_relocatableIT_vE5valueEPS2_E4typeES4_S4_S4_RSaIT0_E' => 1,
                                                      '_ZSt16__do_uninit_copyIN9__gnu_cxx17__normal_iteratorIPKhSt6vectorIhSaIhEEEES7_PhET1_T_T0_S9_' => 1,
                                                      '_ZSt16__do_uninit_copyIN9__gnu_cxx17__normal_iteratorIPKmSt6vectorImSaImEEEES7_PmET1_T_T0_S9_' => 1,
                                                      '_ZSt16__do_uninit_copyIPKhS1_PhET1_T_T0_S3_' => 1,
                                                      '_ZSt18uninitialized_copyIN9__gnu_cxx17__normal_iteratorIPKhSt6vectorIhSaIhEEEEPhET0_T_SA_S9_' => 1,
                                                      '_ZSt18uninitialized_copyIN9__gnu_cxx17__normal_iteratorIPKmSt6vectorImSaImEEEEPmET0_T_SA_S9_' => 1,
                                                      '_ZSt18uninitialized_copyIPKhPhET0_T_S4_S3_' => 1,
                                                      '_ZSt19__relocate_object_aISt6vectorImSaImEES2_SaIS2_EEvPT_PT0_RT1_' => 1,
                                                      '_ZSt19__relocate_object_aImmSaImEEvPT_PT0_RT1_' => 1,
                                                      '_ZSt19__relocate_object_aIttSaItEEvPT_PT0_RT1_' => 1,
                                                      '_ZSt20__throw_format_errorPKc' => 1,
                                                      '_ZSt21is_constant_evaluatedv' => 1,
                                                      '_ZSt22__uninitialized_copy_aIN9__gnu_cxx17__normal_iteratorIPKhSt6vectorIhSaIhEEEES7_PhhET1_T_T0_S9_RSaIT2_E' => 1,
                                                      '_ZSt22__uninitialized_copy_aIN9__gnu_cxx17__normal_iteratorIPKmSt6vectorImSaImEEEES7_PmmET1_T_T0_S9_RSaIT2_E' => 1,
                                                      '_ZSt22__uninitialized_copy_aIPKhS1_PhhET1_T_T0_S3_RSaIT2_E' => 1,
                                                      '_ZSt3getILm0EtPKcEONSt13tuple_elementIXT_ESt4pairIT0_T1_EE4typeEOS6_' => 1,
                                                      '_ZSt3getILm1EtPKcEONSt13tuple_elementIXT_ESt4pairIT0_T1_EE4typeEOS6_' => 1,
                                                      '_ZSt3maxImERKT_S2_S2_' => 1,
                                                      '_ZSt3minImERKT_S2_S2_' => 1,
                                                      '_ZSt4findIPKDiDiET_S2_S2_RKT0_' => 1,
                                                      '_ZSt5equalIN9__gnu_cxx17__normal_iteratorIPKhSt6vectorIhSaIhEEEES7_EbT_S8_T0_' => 1,
                                                      '_ZSt5equalIN9__gnu_cxx17__normal_iteratorIPKmSt6vectorImSaImEEEES7_EbT_S8_T0_' => 1,
                                                      '_ZSt6formatIJRtRmRA3_KcRiEENSt7__cxx1112basic_stringIcSt11char_traitsIcESaIcEEESt19basic_format_stringIcJDpNSt13type_identityIT_E4typeEEEDpOSE_' => 1,
                                                      '_ZSt7vformatB5cxx11St17basic_string_viewIcSt11char_traitsIcEESt17basic_format_argsISt20basic_format_contextINSt8__format10_Sink_iterIcEEcEE' => 1,
                                                      '_ZSt8_DestroyIPSt6vectorImSaImEEEvT_S4_' => 1,
                                                      '_ZSt8_DestroyIPhEvT_S1_' => 1,
                                                      '_ZSt8_DestroyIPmEvT_S1_' => 1,
                                                      '_ZSt8_DestroyIPtEvT_S1_' => 1,
                                                      '_ZSt8_DestroyISt6vectorImSaImEEEvPT_' => 1,
                                                      '_ZSt8__memcmpIhhEiPKT_PKT0_m' => 1,
                                                      '_ZSt8__memcmpImmEiPKT_PKT0_m' => 1,
                                                      '_ZSt8to_charsPcS_mi' => 1,
                                                      '_ZSt9__advanceIPKDilEvRT_T0_St26random_access_iterator_tag' => 1,
                                                      '_ZSt9__advanceIPKclEvRT_T0_St26random_access_iterator_tag' => 1,
                                                      '_ZSt9__advanceIPKjlEvRT_T0_St26random_access_iterator_tag' => 1,
                                                      '_ZSt9bit_widthITkSt18__unsigned_integerjEiT_' => 1,
                                                      '_ZSt9bit_widthIjEiT_' => 1,
                                                      '_ZSteqINSt7__cxx1112basic_stringIcSt11char_traitsIcESaIcEEES5_ENSt9enable_ifIX16is_convertible_vIDTeqcl7declvalIRKT_EEcl7declvalIRKT0_EEEbEEbE4typeERKSt8optionalIS7_ERKSG_ISA_E' => 1,
                                                      '_ZSteqIPKNSt8__format6_Arg_tEEbRKSt16reverse_iteratorIT_ES8_' => 1,
                                                      '_ZSteqIPKNSt8__format6_Arg_tEEbRKSt16reverse_iteratorIT_ES8_QrqXeqcldtfL0p_4baseEcldtfL0p0_4baseERSt14convertible_toIbEE' => 1,
                                                      '_ZSteqIcSt11char_traitsIcEEbSt17basic_string_viewIT_T0_ENSt13type_identityIS5_E4typeE' => 1,
                                                      '_ZSteqIcSt11char_traitsIcESaIcEEbRKNSt7__cxx1112basic_stringIT_T0_T1_EEPKS5_' => 1,
                                                      '_ZSteqIcSt11char_traitsIcESaIcEEbRKNSt7__cxx1112basic_stringIT_T0_T1_EESA_' => 1,
                                                      '_ZSteqIhSaIhEEbRKSt6vectorIT_T0_ES6_' => 1,
                                                      '_ZSteqImSaImEEbRKSt6vectorIT_T0_ES6_' => 1,
                                                      '_ZSteqSt15strong_orderingNSt9__cmp_cat8__unspecE' => 1,
                                                      '_ZStltSt15strong_orderingNSt9__cmp_cat8__unspecE' => 1,
                                                      '_ZTINSt8__format10_Iter_sinkIcNS_10_Sink_iterIcEEEE' => -24,
                                                      '_ZTINSt8__format14_Fixedbuf_sinkIcEE' => -24,
                                                      '_ZTINSt8__format19_Formatting_scannerINS_10_Sink_iterIcEEcEE' => -24,
                                                      '_ZTINSt8__format5_SinkIcEE' => -16,
                                                      '_ZTINSt8__format8_ScannerIcEE' => -16,
                                                      '_ZTINSt8__format9_Buf_sinkIcEE' => -24,
                                                      '_ZTINSt8__format9_Seq_sinkINSt7__cxx1112basic_stringIcSt11char_traitsIcESaIcEEEEE' => -24,
                                                      '_ZTISt12format_error' => -24,
                                                      '_ZTISt19bad_expected_accessINSt7__cxx1112basic_stringIcSt11char_traitsIcESaIcEEEE' => -24,
                                                      '_ZTISt19bad_expected_accessIvE' => -24,
                                                      '_ZTSNSt8__format10_Iter_sinkIcNS_10_Sink_iterIcEEEE' => -48,
                                                      '_ZTSNSt8__format14_Fixedbuf_sinkIcEE' => -33,
                                                      '_ZTSNSt8__format19_Formatting_scannerINS_10_Sink_iterIcEEcEE' => -57,
                                                      '_ZTSNSt8__format5_SinkIcEE' => -23,
                                                      '_ZTSNSt8__format8_ScannerIcEE' => -26,
                                                      '_ZTSNSt8__format9_Buf_sinkIcEE' => -27,
                                                      '_ZTSNSt8__format9_Seq_sinkINSt7__cxx1112basic_stringIcSt11char_traitsIcESaIcEEEEE' => -78,
                                                      '_ZTSSt12format_error' => -17,
                                                      '_ZTSSt19bad_expected_accessINSt7__cxx1112basic_stringIcSt11char_traitsIcESaIcEEEE' => -78,
                                                      '_ZTSSt19bad_expected_accessIvE' => -27,
                                                      '_ZTVNSt8__format10_Iter_sinkIcNS_10_Sink_iterIcEEEE' => -40,
                                                      '_ZTVNSt8__format14_Fixedbuf_sinkIcEE' => -40,
                                                      '_ZTVNSt8__format19_Formatting_scannerINS_10_Sink_iterIcEEcEE' => -32,
                                                      '_ZTVNSt8__format5_SinkIcEE' => -40,
                                                      '_ZTVNSt8__format8_ScannerIcEE' => -32,
                                                      '_ZTVNSt8__format9_Buf_sinkIcEE' => -40,
                                                      '_ZTVNSt8__format9_Seq_sinkINSt7__cxx1112basic_stringIcSt11char_traitsIcESaIcEEEEE' => -40,
                                                      '_ZTVSt12format_error' => -40,
                                                      '_ZTVSt19bad_expected_accessINSt7__cxx1112basic_stringIcSt11char_traitsIcESaIcEEEE' => -40,
                                                      '_ZTVSt19bad_expected_accessIvE' => -40,
                                                      '_ZZNKSt8__format14__formatter_fpIcE11_M_localizeB5cxx11ESt17basic_string_viewIcSt11char_traitsIcEEcRKSt6localeENKUlPcmE_clES9_m' => 1,
                                                      '_ZZNKSt8__format14__formatter_fpIcE6formatIDF128_NS_10_Sink_iterIcEEEENSt20basic_format_contextIT0_cE8iteratorET_RS7_ENKUlPcSB_E_clESB_SB_' => 1,
                                                      '_ZZNKSt8__format14__formatter_fpIcE6formatIDF128_NS_10_Sink_iterIcEEEENSt20basic_format_contextIT0_cE8iteratorET_RS7_ENKUlPcmE0_clESB_m' => 1,
                                                      '_ZZNKSt8__format14__formatter_fpIcE6formatIDF128_NS_10_Sink_iterIcEEEENSt20basic_format_contextIT0_cE8iteratorET_RS7_ENKUlPcmE_clESB_m' => 1,
                                                      '_ZZNKSt8__format14__formatter_fpIcE6formatIdNS_10_Sink_iterIcEEEENSt20basic_format_contextIT0_cE8iteratorET_RS7_ENKUlPcSB_E_clESB_SB_' => 1,
                                                      '_ZZNKSt8__format14__formatter_fpIcE6formatIdNS_10_Sink_iterIcEEEENSt20basic_format_contextIT0_cE8iteratorET_RS7_ENKUlPcmE0_clESB_m' => 1,
                                                      '_ZZNKSt8__format14__formatter_fpIcE6formatIdNS_10_Sink_iterIcEEEENSt20basic_format_contextIT0_cE8iteratorET_RS7_ENKUlPcmE_clESB_m' => 1,
                                                      '_ZZNKSt8__format14__formatter_fpIcE6formatIeNS_10_Sink_iterIcEEEENSt20basic_format_contextIT0_cE8iteratorET_RS7_ENKUlPcSB_E_clESB_SB_' => 1,
                                                      '_ZZNKSt8__format14__formatter_fpIcE6formatIeNS_10_Sink_iterIcEEEENSt20basic_format_contextIT0_cE8iteratorET_RS7_ENKUlPcmE0_clESB_m' => 1,
                                                      '_ZZNKSt8__format14__formatter_fpIcE6formatIeNS_10_Sink_iterIcEEEENSt20basic_format_contextIT0_cE8iteratorET_RS7_ENKUlPcmE_clESB_m' => 1,
                                                      '_ZZNKSt8__format14__formatter_fpIcE6formatIfNS_10_Sink_iterIcEEEENSt20basic_format_contextIT0_cE8iteratorET_RS7_ENKUlPcSB_E_clESB_SB_' => 1,
                                                      '_ZZNKSt8__format14__formatter_fpIcE6formatIfNS_10_Sink_iterIcEEEENSt20basic_format_contextIT0_cE8iteratorET_RS7_ENKUlPcmE0_clESB_m' => 1,
                                                      '_ZZNKSt8__format14__formatter_fpIcE6formatIfNS_10_Sink_iterIcEEEENSt20basic_format_contextIT0_cE8iteratorET_RS7_ENKUlPcmE_clESB_m' => 1,
                                                      '_ZZNKSt8__format15__formatter_strIcE6formatINS_10_Sink_iterIcEEEET_St17basic_string_viewIcSt11char_traitsIcEERSt20basic_format_contextIS5_cEENKUlvE_clEv' => 1,
                                                      '_ZZNSt7__cxx1112basic_stringIcSt11char_traitsIcESaIcEE12_M_constructINSt9__unicode13_Utf_iteratorIDicPKDiS9_NS6_5_ReplEEEEEvT_SC_St18input_iterator_tagEN6_GuardC1EPS4_' => 1,
                                                      '_ZZNSt7__cxx1112basic_stringIcSt11char_traitsIcESaIcEE12_M_constructINSt9__unicode13_Utf_iteratorIDicPKDiS9_NS6_5_ReplEEEEEvT_SC_St18input_iterator_tagEN6_GuardC2EPS4_' => 1,
                                                      '_ZZNSt7__cxx1112basic_stringIcSt11char_traitsIcESaIcEE12_M_constructINSt9__unicode13_Utf_iteratorIDicPKDiS9_NS6_5_ReplEEEEEvT_SC_St18input_iterator_tagEN6_GuardD1Ev' => 1,
                                                      '_ZZNSt7__cxx1112basic_stringIcSt11char_traitsIcESaIcEE12_M_constructINSt9__unicode13_Utf_iteratorIDicPKDiS9_NS6_5_ReplEEEEEvT_SC_St18input_iterator_tagEN6_GuardD2Ev' => 1,
                                                      '_ZZNSt7__cxx1112basic_stringIcSt11char_traitsIcESaIcEE12_M_constructIPKcEEvT_S8_St20forward_iterator_tagEN6_GuardC1EPS4_' => 1,
                                                      '_ZZNSt7__cxx1112basic_stringIcSt11char_traitsIcESaIcEE12_M_constructIPKcEEvT_S8_St20forward_iterator_tagEN6_GuardC2EPS4_' => 1,
                                                      '_ZZNSt7__cxx1112basic_stringIcSt11char_traitsIcESaIcEE12_M_constructIPKcEEvT_S8_St20forward_iterator_tagEN6_GuardD1Ev' => 1,
                                                      '_ZZNSt7__cxx1112basic_stringIcSt11char_traitsIcESaIcEE12_M_constructIPKcEEvT_S8_St20forward_iterator_tagEN6_GuardD2Ev' => 1,
                                                      '_ZZNSt7__cxx1112basic_stringIcSt11char_traitsIcESaIcEE20resize_and_overwriteIRZNKSt8__format14__formatter_fpIcE11_M_localizeESt17basic_string_viewIcS2_EcRKSt6localeEUlPcmE_EEvmT_EN11_TerminatorD1Ev' => 1,
                                                      '_ZZNSt7__cxx1112basic_stringIcSt11char_traitsIcESaIcEE20resize_and_overwriteIRZNKSt8__format14__formatter_fpIcE11_M_localizeESt17basic_string_viewIcS2_EcRKSt6localeEUlPcmE_EEvmT_EN11_TerminatorD2Ev' => 1,
                                                      '_ZZNSt7__cxx1112basic_stringIcSt11char_traitsIcESaIcEE20resize_and_overwriteIRZNKSt8__format14__formatter_fpIcE6formatIDF128_NS6_10_Sink_iterIcEEEENSt20basic_format_contextIT0_cE8iteratorET_RSE_EUlPcmE0_EEvmSG_EN11_TerminatorD1Ev' => 1,
                                                      '_ZZNSt7__cxx1112basic_stringIcSt11char_traitsIcESaIcEE20resize_and_overwriteIRZNKSt8__format14__formatter_fpIcE6formatIDF128_NS6_10_Sink_iterIcEEEENSt20basic_format_contextIT0_cE8iteratorET_RSE_EUlPcmE0_EEvmSG_EN11_TerminatorD2Ev' => 1,
                                                      '_ZZNSt7__cxx1112basic_stringIcSt11char_traitsIcESaIcEE20resize_and_overwriteIRZNKSt8__format14__formatter_fpIcE6formatIDF128_NS6_10_Sink_iterIcEEEENSt20basic_format_contextIT0_cE8iteratorET_RSE_EUlPcmE_EEvmSG_EN11_TerminatorD1Ev' => 1,
                                                      '_ZZNSt7__cxx1112basic_stringIcSt11char_traitsIcESaIcEE20resize_and_overwriteIRZNKSt8__format14__formatter_fpIcE6formatIDF128_NS6_10_Sink_iterIcEEEENSt20basic_format_contextIT0_cE8iteratorET_RSE_EUlPcmE_EEvmSG_EN11_TerminatorD2Ev' => 1,
                                                      '_ZZNSt7__cxx1112basic_stringIcSt11char_traitsIcESaIcEE20resize_and_overwriteIRZNKSt8__format14__formatter_fpIcE6formatIdNS6_10_Sink_iterIcEEEENSt20basic_format_contextIT0_cE8iteratorET_RSE_EUlPcmE0_EEvmSG_EN11_TerminatorD1Ev' => 1,
                                                      '_ZZNSt7__cxx1112basic_stringIcSt11char_traitsIcESaIcEE20resize_and_overwriteIRZNKSt8__format14__formatter_fpIcE6formatIdNS6_10_Sink_iterIcEEEENSt20basic_format_contextIT0_cE8iteratorET_RSE_EUlPcmE0_EEvmSG_EN11_TerminatorD2Ev' => 1,
                                                      '_ZZNSt7__cxx1112basic_stringIcSt11char_traitsIcESaIcEE20resize_and_overwriteIRZNKSt8__format14__formatter_fpIcE6formatIdNS6_10_Sink_iterIcEEEENSt20basic_format_contextIT0_cE8iteratorET_RSE_EUlPcmE_EEvmSG_EN11_TerminatorD1Ev' => 1,
                                                      '_ZZNSt7__cxx1112basic_stringIcSt11char_traitsIcESaIcEE20resize_and_overwriteIRZNKSt8__format14__formatter_fpIcE6formatIdNS6_10_Sink_iterIcEEEENSt20basic_format_contextIT0_cE8iteratorET_RSE_EUlPcmE_EEvmSG_EN11_TerminatorD2Ev' => 1,
                                                      '_ZZNSt7__cxx1112basic_stringIcSt11char_traitsIcESaIcEE20resize_and_overwriteIRZNKSt8__format14__formatter_fpIcE6formatIeNS6_10_Sink_iterIcEEEENSt20basic_format_contextIT0_cE8iteratorET_RSE_EUlPcmE0_EEvmSG_EN11_TerminatorD1Ev' => 1,
                                                      '_ZZNSt7__cxx1112basic_stringIcSt11char_traitsIcESaIcEE20resize_and_overwriteIRZNKSt8__format14__formatter_fpIcE6formatIeNS6_10_Sink_iterIcEEEENSt20basic_format_contextIT0_cE8iteratorET_RSE_EUlPcmE0_EEvmSG_EN11_TerminatorD2Ev' => 1,
                                                      '_ZZNSt7__cxx1112basic_stringIcSt11char_traitsIcESaIcEE20resize_and_overwriteIRZNKSt8__format14__formatter_fpIcE6formatIeNS6_10_Sink_iterIcEEEENSt20basic_format_contextIT0_cE8iteratorET_RSE_EUlPcmE_EEvmSG_EN11_TerminatorD1Ev' => 1,
                                                      '_ZZNSt7__cxx1112basic_stringIcSt11char_traitsIcESaIcEE20resize_and_overwriteIRZNKSt8__format14__formatter_fpIcE6formatIeNS6_10_Sink_iterIcEEEENSt20basic_format_contextIT0_cE8iteratorET_RSE_EUlPcmE_EEvmSG_EN11_TerminatorD2Ev' => 1,
                                                      '_ZZNSt7__cxx1112basic_stringIcSt11char_traitsIcESaIcEE20resize_and_overwriteIRZNKSt8__format14__formatter_fpIcE6formatIfNS6_10_Sink_iterIcEEEENSt20basic_format_contextIT0_cE8iteratorET_RSE_EUlPcmE0_EEvmSG_EN11_TerminatorD1Ev' => 1,
                                                      '_ZZNSt7__cxx1112basic_stringIcSt11char_traitsIcESaIcEE20resize_and_overwriteIRZNKSt8__format14__formatter_fpIcE6formatIfNS6_10_Sink_iterIcEEEENSt20basic_format_contextIT0_cE8iteratorET_RSE_EUlPcmE0_EEvmSG_EN11_TerminatorD2Ev' => 1,
                                                      '_ZZNSt7__cxx1112basic_stringIcSt11char_traitsIcESaIcEE20resize_and_overwriteIRZNKSt8__format14__formatter_fpIcE6formatIfNS6_10_Sink_iterIcEEEENSt20basic_format_contextIT0_cE8iteratorET_RSE_EUlPcmE_EEvmSG_EN11_TerminatorD1Ev' => 1,
                                                      '_ZZNSt7__cxx1112basic_stringIcSt11char_traitsIcESaIcEE20resize_and_overwriteIRZNKSt8__format14__formatter_fpIcE6formatIfNS6_10_Sink_iterIcEEEENSt20basic_format_contextIT0_cE8iteratorET_RSE_EUlPcmE_EEvmSG_EN11_TerminatorD2Ev' => 1,
                                                      '_ZZNSt7__cxx1112basic_stringIcSt11char_traitsIcESaIcEE20resize_and_overwriteIRZNSt8__format9_Seq_sinkIS4_E10_M_reserveEmEUlT_T0_E_EEvmS9_EN11_TerminatorD1Ev' => 1,
                                                      '_ZZNSt7__cxx1112basic_stringIcSt11char_traitsIcESaIcEE20resize_and_overwriteIRZNSt8__format9_Seq_sinkIS4_E10_M_reserveEmEUlT_T0_E_EEvmS9_EN11_TerminatorD2Ev' => 1,
                                                      '_ZZNSt8__format14__formatter_fpIcE5parseERSt26basic_format_parse_contextIcEENKUlvE0_clEv' => 1,
                                                      '_ZZNSt8__format14__formatter_fpIcE5parseERSt26basic_format_parse_contextIcEENKUlvE_clEv' => 1,
                                                      '_ZZNSt8__format14__write_paddedINS_10_Sink_iterIcEEcEET_S3_St17basic_string_viewIT0_St11char_traitsIS5_EENS_6_AlignEmDiENKUlmRS2_E_clEmSA_' => 1,
                                                      '_ZZNSt8__format15__do_vformat_toINS_10_Sink_iterIcEEcSt20basic_format_contextIS2_cEEET_S5_St17basic_string_viewIT0_St11char_traitsIS7_EERKSt17basic_format_argsIT1_EPKSt6localeENKUlRS5_E_clIDF128_EEDaSJ_' => 1,
                                                      '_ZZNSt8__format15__do_vformat_toINS_10_Sink_iterIcEEcSt20basic_format_contextIS2_cEEET_S5_St17basic_string_viewIT0_St11char_traitsIS7_EERKSt17basic_format_argsIT1_EPKSt6localeENKUlRS5_E_clINSt16basic_format_argIS4_E6handleEEEDaSJ_' => 1,
                                                      '_ZZNSt8__format15__do_vformat_toINS_10_Sink_iterIcEEcSt20basic_format_contextIS2_cEEET_S5_St17basic_string_viewIT0_St11char_traitsIS7_EERKSt17basic_format_argsIT1_EPKSt6localeENKUlRS5_E_clIPKcEEDaSJ_' => 1,
                                                      '_ZZNSt8__format15__do_vformat_toINS_10_Sink_iterIcEEcSt20basic_format_contextIS2_cEEET_S5_St17basic_string_viewIT0_St11char_traitsIS7_EERKSt17basic_format_argsIT1_EPKSt6localeENKUlRS5_E_clIPKvEEDaSJ_' => 1,
                                                      '_ZZNSt8__format15__do_vformat_toINS_10_Sink_iterIcEEcSt20basic_format_contextIS2_cEEET_S5_St17basic_string_viewIT0_St11char_traitsIS7_EERKSt17basic_format_argsIT1_EPKSt6localeENKUlRS5_E_clIS6_IcS8_IcEEEEDaSJ_' => 1,
                                                      '_ZZNSt8__format15__do_vformat_toINS_10_Sink_iterIcEEcSt20basic_format_contextIS2_cEEET_S5_St17basic_string_viewIT0_St11char_traitsIS7_EERKSt17basic_format_argsIT1_EPKSt6localeENKUlRS5_E_clISt9monostateEEDaSJ_' => 1,
                                                      '_ZZNSt8__format15__do_vformat_toINS_10_Sink_iterIcEEcSt20basic_format_contextIS2_cEEET_S5_St17basic_string_viewIT0_St11char_traitsIS7_EERKSt17basic_format_argsIT1_EPKSt6localeENKUlRS5_E_clIbEEDaSJ_' => 1,
                                                      '_ZZNSt8__format15__do_vformat_toINS_10_Sink_iterIcEEcSt20basic_format_contextIS2_cEEET_S5_St17basic_string_viewIT0_St11char_traitsIS7_EERKSt17basic_format_argsIT1_EPKSt6localeENKUlRS5_E_clIcEEDaSJ_' => 1,
                                                      '_ZZNSt8__format15__do_vformat_toINS_10_Sink_iterIcEEcSt20basic_format_contextIS2_cEEET_S5_St17basic_string_viewIT0_St11char_traitsIS7_EERKSt17basic_format_argsIT1_EPKSt6localeENKUlRS5_E_clIdEEDaSJ_' => 1,
                                                      '_ZZNSt8__format15__do_vformat_toINS_10_Sink_iterIcEEcSt20basic_format_contextIS2_cEEET_S5_St17basic_string_viewIT0_St11char_traitsIS7_EERKSt17basic_format_argsIT1_EPKSt6localeENKUlRS5_E_clIeEEDaSJ_' => 1,
                                                      '_ZZNSt8__format15__do_vformat_toINS_10_Sink_iterIcEEcSt20basic_format_contextIS2_cEEET_S5_St17basic_string_viewIT0_St11char_traitsIS7_EERKSt17basic_format_argsIT1_EPKSt6localeENKUlRS5_E_clIfEEDaSJ_' => 1,
                                                      '_ZZNSt8__format15__do_vformat_toINS_10_Sink_iterIcEEcSt20basic_format_contextIS2_cEEET_S5_St17basic_string_viewIT0_St11char_traitsIS7_EERKSt17basic_format_argsIT1_EPKSt6localeENKUlRS5_E_clIiEEDaSJ_' => 1,
                                                      '_ZZNSt8__format15__do_vformat_toINS_10_Sink_iterIcEEcSt20basic_format_contextIS2_cEEET_S5_St17basic_string_viewIT0_St11char_traitsIS7_EERKSt17basic_format_argsIT1_EPKSt6localeENKUlRS5_E_clIjEEDaSJ_' => 1,
                                                      '_ZZNSt8__format15__do_vformat_toINS_10_Sink_iterIcEEcSt20basic_format_contextIS2_cEEET_S5_St17basic_string_viewIT0_St11char_traitsIS7_EERKSt17basic_format_argsIT1_EPKSt6localeENKUlRS5_E_clInEEDaSJ_' => 1,
                                                      '_ZZNSt8__format15__do_vformat_toINS_10_Sink_iterIcEEcSt20basic_format_contextIS2_cEEET_S5_St17basic_string_viewIT0_St11char_traitsIS7_EERKSt17basic_format_argsIT1_EPKSt6localeENKUlRS5_E_clIoEEDaSJ_' => 1,
                                                      '_ZZNSt8__format15__do_vformat_toINS_10_Sink_iterIcEEcSt20basic_format_contextIS2_cEEET_S5_St17basic_string_viewIT0_St11char_traitsIS7_EERKSt17basic_format_argsIT1_EPKSt6localeENKUlRS5_E_clIxEEDaSJ_' => 1,
                                                      '_ZZNSt8__format15__do_vformat_toINS_10_Sink_iterIcEEcSt20basic_format_contextIS2_cEEET_S5_St17basic_string_viewIT0_St11char_traitsIS7_EERKSt17basic_format_argsIT1_EPKSt6localeENKUlRS5_E_clIyEEDaSJ_' => 1,
                                                      '_ZZNSt8__format15__formatter_intIcE11_M_do_parseERSt26basic_format_parse_contextIcENS_10_Pres_typeEENKUlvE0_clEv' => 1,
                                                      '_ZZNSt8__format15__formatter_intIcE11_M_do_parseERSt26basic_format_parse_contextIcENS_10_Pres_typeEENKUlvE_clEv' => 1,
                                                      '_ZZNSt8__format15__formatter_strIcE5parseERSt26basic_format_parse_contextIcEENKUlvE0_clEv' => 1,
                                                      '_ZZNSt8__format15__formatter_strIcE5parseERSt26basic_format_parse_contextIcEENKUlvE_clEv' => 1,
                                                      '_ZZNSt8__format19_Formatting_scannerINS_10_Sink_iterIcEEcE13_M_format_argEmENKUlRT_E_clIDF128_EEDaS5_' => 1,
                                                      '_ZZNSt8__format19_Formatting_scannerINS_10_Sink_iterIcEEcE13_M_format_argEmENKUlRT_E_clINSt16basic_format_argISt20basic_format_contextIS2_cEE6handleEEEDaS5_' => 1,
                                                      '_ZZNSt8__format19_Formatting_scannerINS_10_Sink_iterIcEEcE13_M_format_argEmENKUlRT_E_clIPKcEEDaS5_' => 1,
                                                      '_ZZNSt8__format19_Formatting_scannerINS_10_Sink_iterIcEEcE13_M_format_argEmENKUlRT_E_clIPKvEEDaS5_' => 1,
                                                      '_ZZNSt8__format19_Formatting_scannerINS_10_Sink_iterIcEEcE13_M_format_argEmENKUlRT_E_clISt17basic_string_viewIcSt11char_traitsIcEEEEDaS5_' => 1,
                                                      '_ZZNSt8__format19_Formatting_scannerINS_10_Sink_iterIcEEcE13_M_format_argEmENKUlRT_E_clISt9monostateEEDaS5_' => 1,
                                                      '_ZZNSt8__format19_Formatting_scannerINS_10_Sink_iterIcEEcE13_M_format_argEmENKUlRT_E_clIbEEDaS5_' => 1,
                                                      '_ZZNSt8__format19_Formatting_scannerINS_10_Sink_iterIcEEcE13_M_format_argEmENKUlRT_E_clIcEEDaS5_' => 1,
                                                      '_ZZNSt8__format19_Formatting_scannerINS_10_Sink_iterIcEEcE13_M_format_argEmENKUlRT_E_clIdEEDaS5_' => 1,
                                                      '_ZZNSt8__format19_Formatting_scannerINS_10_Sink_iterIcEEcE13_M_format_argEmENKUlRT_E_clIeEEDaS5_' => 1,
                                                      '_ZZNSt8__format19_Formatting_scannerINS_10_Sink_iterIcEEcE13_M_format_argEmENKUlRT_E_clIfEEDaS5_' => 1,
                                                      '_ZZNSt8__format19_Formatting_scannerINS_10_Sink_iterIcEEcE13_M_format_argEmENKUlRT_E_clIiEEDaS5_' => 1,
                                                      '_ZZNSt8__format19_Formatting_scannerINS_10_Sink_iterIcEEcE13_M_format_argEmENKUlRT_E_clIjEEDaS5_' => 1,
                                                      '_ZZNSt8__format19_Formatting_scannerINS_10_Sink_iterIcEEcE13_M_format_argEmENKUlRT_E_clInEEDaS5_' => 1,
                                                      '_ZZNSt8__format19_Formatting_scannerINS_10_Sink_iterIcEEcE13_M_format_argEmENKUlRT_E_clIoEEDaS5_' => 1,
                                                      '_ZZNSt8__format19_Formatting_scannerINS_10_Sink_iterIcEEcE13_M_format_argEmENKUlRT_E_clIxEEDaS5_' => 1,
                                                      '_ZZNSt8__format19_Formatting_scannerINS_10_Sink_iterIcEEcE13_M_format_argEmENKUlRT_E_clIyEEDaS5_' => 1,
                                                      '_ZZNSt8__format23__write_escaped_unicodeIcNS_10_Sink_iterIcEEEET0_S3_St17basic_string_viewIT_St11char_traitsIS5_EENS_10_Term_charEENKUlRKS5_E0_clINSt9__unicode13_Utf_iteratorIcDiPKcSH_NSE_5_ReplEEEEEDaSB_' => 1,
                                                      '_ZZNSt8__format23__write_escaped_unicodeIcNS_10_Sink_iterIcEEEET0_S3_St17basic_string_viewIT_St11char_traitsIS5_EENS_10_Term_charEENKUlRKS5_E_clINSt9__unicode13_Utf_iteratorIcDiPKcSH_NSE_5_ReplEEEEEDaSB_' => 1,
                                                      '_ZZNSt8__format9_Seq_sinkINSt7__cxx1112basic_stringIcSt11char_traitsIcESaIcEEEE10_M_reserveEmENKUlT_T0_E_clIPcmEEDaS8_S9_' => 1,
                                                      '_ZZNSt9__unicode13_Utf_iteratorIcDiPKcS2_NS_5_ReplEE12_M_read_utf8EvENKUlvE_clEv' => 1,
                                                      '_ZZNSt9formatterIPKvcE5parseERSt26basic_format_parse_contextIcEENKUlvE0_clEv' => 1,
                                                      '_ZZNSt9formatterIPKvcE5parseERSt26basic_format_parse_contextIcEENKUlvE_clEv' => 1,
                                                      '_ZdlPvS_' => 1,
                                                      '_ZnwmPv' => 1
                                                    }
                       },
          'Target' => 'unix',
          'TypeInfo' => {
                          '662' => {
                                     'BaseType' => '143868',
                                     'Header' => 'c++config.h',
                                     'Line' => '338',
                                     'Name' => 'std::size_t',
                                     'NameSpace' => 'std',
                                     'PrivateABI' => 1,
                                     'Size' => '8',
                                     'Type' => 'Typedef'
                                   },
                          '1527' => {
                                      'Copied' => 1,
                                      'Header' => 'ranges_base.h',
                                      'Line' => '472',
                                      'Name' => 'struct std::ranges::__access::_Data',
                                      'NameSpace' => 'std::ranges::__access',
                                      'PrivateABI' => 1,
                                      'Size' => '1',
                                      'Type' => 'Struct'
                                    },
                          '1584' => {
                                      'BaseType' => '1527',
                                      'Name' => 'struct std::ranges::__access::_Data const',
                                      'Size' => '1',
                                      'Type' => 'Const'
                                    },
                          '6260' => {
                                      'BaseType' => '143928',
                                      'Header' => 'compare',
                                      'Line' => '54',
                                      'Name' => 'std::__cmp_cat::type',
                                      'NameSpace' => 'std::__cmp_cat',
                                      'PrivateABI' => 1,
                                      'Size' => '1',
                                      'Type' => 'Typedef'
                                    },
                          '6297' => {
                                      'Header' => 'compare',
                                      'Line' => '60',
                                      'Name' => 'struct std::__cmp_cat::__unspec',
                                      'NameSpace' => 'std::__cmp_cat',
                                      'PrivateABI' => 1,
                                      'Size' => '1',
                                      'Type' => 'Struct'
                                    },
                          '6513' => {
                                      'Header' => 'compare',
                                      'Line' => '261',
                                      'Memb' => {
                                                  '0' => {
                                                           'access' => 'private',
                                                           'name' => '_M_value',
                                                           'offset' => '0',
                                                           'type' => '6260'
                                                         }
                                                },
                                      'Name' => 'std::strong_ordering',
                                      'NameSpace' => 'std',
                                      'PrivateABI' => 1,
                                      'Size' => '1',
                                      'Type' => 'Class'
                                    },
                          '10032' => {
                                       'Header' => 'new_allocator.h',
                                       'Line' => '63',
                                       'Name' => 'std::__new_allocator<char>',
                                       'NameSpace' => 'std',
                                       'PrivateABI' => 1,
                                       'Size' => '1',
                                       'TParam' => {
                                                     '0' => {
                                                              'key' => '_Tp',
                                                              'type' => '155291'
                                                            }
                                                   },
                                       'Type' => 'Class'
                                     },
                          '10276' => {
                                       'Base' => {
                                                   '10032' => {
                                                                'pos' => '0'
                                                              }
                                                 },
                                       'Header' => 'allocator.h',
                                       'Line' => '133',
                                       'Name' => 'std::allocator<char>',
                                       'NameSpace' => 'std',
                                       'PrivateABI' => 1,
                                       'Size' => '1',
                                       'TParam' => {
                                                     '0' => {
                                                              'name' => 'char'
                                                            }
                                                   },
                                       'Type' => 'Class'
                                     },
                          '13966' => {
                                       'Copied' => 1,
                                       'Header' => 'alloc_traits.h',
                                       'Line' => '560',
                                       'Name' => 'struct std::allocator_traits<std::allocator<char> >',
                                       'NameSpace' => 'std',
                                       'PrivateABI' => 1,
                                       'Size' => '1',
                                       'TParam' => {
                                                     '0' => {
                                                              'type' => '10276'
                                                            }
                                                   },
                                       'Type' => 'Struct'
                                     },
                          '13980' => {
                                       'BaseType' => '156626',
                                       'Header' => 'alloc_traits.h',
                                       'Line' => '569',
                                       'Name' => 'std::allocator_traits<std::allocator<char> >::pointer',
                                       'NameSpace' => 'std::allocator_traits<std::allocator<char> >',
                                       'PrivateABI' => 1,
                                       'Size' => '8',
                                       'Type' => 'Typedef'
                                     },
                          '14043' => {
                                       'BaseType' => '662',
                                       'Header' => 'alloc_traits.h',
                                       'Line' => '584',
                                       'Name' => 'std::allocator_traits<std::allocator<char> >::size_type',
                                       'NameSpace' => 'std::allocator_traits<std::allocator<char> >',
                                       'PrivateABI' => 1,
                                       'Size' => '8',
                                       'Type' => 'Typedef'
                                     },
                          '14234' => {
                                       'Header' => 'basic_string.h',
                                       'Line' => '94',
                                       'Memb' => {
                                                   '0' => {
                                                            'access' => 'private',
                                                            'name' => '_M_dataplus',
                                                            'offset' => '0',
                                                            'type' => '14247'
                                                          },
                                                   '1' => {
                                                            'access' => 'private',
                                                            'name' => '_M_string_length',
                                                            'offset' => '8',
                                                            'type' => '14442'
                                                          },
                                                   '2' => {
                                                            'access' => 'private',
                                                            'name' => 'unnamed0',
                                                            'offset' => '22',
                                                            'type' => '14407'
                                                          }
                                                 },
                                       'Name' => 'std::__cxx11::basic_string<char>',
                                       'NameSpace' => 'std::__cxx11',
                                       'PrivateABI' => 1,
                                       'Size' => '32',
                                       'TParam' => {
                                                     '0' => {
                                                              'key' => '_CharT',
                                                              'type' => '155291'
                                                            }
                                                   },
                                       'Type' => 'Class'
                                     },
                          '14247' => {
                                       'Base' => {
                                                   '10276' => {
                                                                'pos' => '0'
                                                              }
                                                 },
                                       'Header' => 'basic_string.h',
                                       'Line' => '197',
                                       'Memb' => {
                                                   '0' => {
                                                            'name' => '_M_p',
                                                            'offset' => '0',
                                                            'type' => '14372'
                                                          }
                                                 },
                                       'Name' => 'struct std::__cxx11::basic_string<char>::_Alloc_hider',
                                       'NameSpace' => 'std::__cxx11::basic_string<char>',
                                       'Private' => 1,
                                       'PrivateABI' => 1,
                                       'Size' => '8',
                                       'Type' => 'Struct'
                                     },
                          '14372' => {
                                       'BaseType' => '145330',
                                       'Header' => 'basic_string.h',
                                       'Line' => '119',
                                       'Name' => 'std::__cxx11::basic_string<char>::pointer',
                                       'NameSpace' => 'std::__cxx11::basic_string<char>',
                                       'PrivateABI' => 1,
                                       'Size' => '8',
                                       'Type' => 'Typedef'
                                     },
                          '14407' => {
                                       'Header' => 'basic_string.h',
                                       'Line' => '221',
                                       'Memb' => {
                                                   '0' => {
                                                            'name' => '_M_local_buf',
                                                            'offset' => '0',
                                                            'type' => '160839'
                                                          },
                                                   '1' => {
                                                            'name' => '_M_allocated_capacity',
                                                            'offset' => '0',
                                                            'type' => '14442'
                                                          }
                                                 },
                                       'Name' => 'std::__cxx11::basic_string<char>::anon-union-basic_string.h-221',
                                       'NameSpace' => 'std::__cxx11::basic_string<char>',
                                       'Private' => 1,
                                       'PrivateABI' => 1,
                                       'Size' => '16',
                                       'Type' => 'Union'
                                     },
                          '14442' => {
                                       'BaseType' => '145354',
                                       'Header' => 'basic_string.h',
                                       'Line' => '115',
                                       'Name' => 'std::__cxx11::basic_string<char>::size_type',
                                       'NameSpace' => 'std::__cxx11::basic_string<char>',
                                       'PrivateABI' => 1,
                                       'Size' => '8',
                                       'Type' => 'Typedef'
                                     },
                          '23311' => {
                                       'Header' => 'bitset',
                                       'Line' => '409',
                                       'Memb' => {
                                                   '0' => {
                                                            'name' => '_M_w',
                                                            'offset' => '0',
                                                            'type' => '23325'
                                                          }
                                                 },
                                       'Name' => 'struct std::_Base_bitset<1ul>',
                                       'NameSpace' => 'std',
                                       'PrivateABI' => 1,
                                       'Size' => '8',
                                       'TParam' => {
                                                     '0' => {
                                                              'key' => '_Nw',
                                                              'type' => '143868',
                                                              'val' => '1'
                                                            }
                                                   },
                                       'Type' => 'Struct'
                                     },
                          '23325' => {
                                       'BaseType' => '143868',
                                       'Header' => 'bitset',
                                       'Line' => '411',
                                       'Name' => 'std::_Base_bitset<1ul>::_WordT',
                                       'NameSpace' => 'std::_Base_bitset<1ul>',
                                       'PrivateABI' => 1,
                                       'Size' => '8',
                                       'Type' => 'Typedef'
                                     },
                          '24407' => {
                                       'Header' => 'stl_tree.h',
                                       'Line' => '105',
                                       'Memb' => {
                                                   '0' => {
                                                            'name' => '_S_red',
                                                            'value' => '0'
                                                          },
                                                   '1' => {
                                                            'name' => '_S_black',
                                                            'value' => '1'
                                                          }
                                                 },
                                       'Name' => 'enum std::_Rb_tree_color',
                                       'NameSpace' => 'std',
                                       'PrivateABI' => 1,
                                       'Size' => '4',
                                       'Type' => 'Enum'
                                     },
                          '24437' => {
                                       'Copied' => 1,
                                       'Header' => 'stl_tree.h',
                                       'Line' => '107',
                                       'Memb' => {
                                                   '0' => {
                                                            'name' => '_M_color',
                                                            'offset' => '0',
                                                            'type' => '24407'
                                                          },
                                                   '1' => {
                                                            'name' => '_M_parent',
                                                            'offset' => '8',
                                                            'type' => '24463'
                                                          },
                                                   '2' => {
                                                            'name' => '_M_left',
                                                            'offset' => '22',
                                                            'type' => '24463'
                                                          },
                                                   '3' => {
                                                            'name' => '_M_right',
                                                            'offset' => '36',
                                                            'type' => '24463'
                                                          }
                                                 },
                                       'Name' => 'struct std::_Rb_tree_node_base',
                                       'NameSpace' => 'std',
                                       'PrivateABI' => 1,
                                       'Size' => '32',
                                       'Type' => 'Struct'
                                     },
                          '24463' => {
                                       'BaseType' => '163121',
                                       'Header' => 'stl_tree.h',
                                       'Line' => '109',
                                       'Name' => 'std::_Rb_tree_node_base::_Base_ptr',
                                       'NameSpace' => 'std::_Rb_tree_node_base',
                                       'PrivateABI' => 1,
                                       'Size' => '8',
                                       'Type' => 'Typedef'
                                     },
                          '24599' => {
                                       'Header' => 'stl_tree.h',
                                       'Line' => '166',
                                       'Memb' => {
                                                   '0' => {
                                                            'name' => '_M_header',
                                                            'offset' => '0',
                                                            'type' => '24437'
                                                          },
                                                   '1' => {
                                                            'name' => '_M_node_count',
                                                            'offset' => '50',
                                                            'type' => '662'
                                                          }
                                                 },
                                       'Name' => 'struct std::_Rb_tree_header',
                                       'NameSpace' => 'std',
                                       'PrivateABI' => 1,
                                       'Size' => '40',
                                       'Type' => 'Struct'
                                     },
                          '26825' => {
                                       'BaseType' => '14234',
                                       'Header' => 'stringfwd.h',
                                       'Line' => '79',
                                       'Name' => 'std::string',
                                       'NameSpace' => 'std',
                                       'PrivateABI' => 1,
                                       'Size' => '32',
                                       'Type' => 'Typedef'
                                     },
                          '27564' => {
                                       'Header' => 'optional',
                                       'Line' => '115',
                                       'Memb' => {
                                                   '0' => {
                                                            'name' => '_M_payload',
                                                            'offset' => '0',
                                                            'type' => '27586'
                                                          },
                                                   '1' => {
                                                            'name' => '_M_engaged',
                                                            'offset' => '50',
                                                            'type' => '143846'
                                                          }
                                                 },
                                       'Name' => 'struct std::_Optional_payload_base<std::__cxx11::basic_string<char> >',
                                       'NameSpace' => 'std',
                                       'PrivateABI' => 1,
                                       'Size' => '40',
                                       'TParam' => {
                                                     '0' => {
                                                              'key' => '_Tp',
                                                              'type' => '14234'
                                                            }
                                                   },
                                       'Type' => 'Struct'
                                     },
                          '27577' => {
                                       'Header' => 'optional',
                                       'Line' => '203',
                                       'Name' => 'struct std::_Optional_payload_base<std::__cxx11::basic_string<char> >::_Empty_byte',
                                       'NameSpace' => 'std::_Optional_payload_base<std::__cxx11::basic_string<char> >',
                                       'PrivateABI' => 1,
                                       'Size' => '1',
                                       'Type' => 'Struct'
                                     },
                          '27586' => {
                                       'Header' => 'optional',
                                       'Line' => '206',
                                       'Memb' => {
                                                   '0' => {
                                                            'name' => '_M_empty',
                                                            'offset' => '0',
                                                            'type' => '27577'
                                                          },
                                                   '1' => {
                                                            'name' => '_M_value',
                                                            'offset' => '0',
                                                            'type' => '14234'
                                                          }
                                                 },
                                       'Name' => 'union std::_Optional_payload_base<std::__cxx11::basic_string<char> >::_Storage<std::__cxx11::basic_string<char> >',
                                       'NameSpace' => 'std::_Optional_payload_base<std::__cxx11::basic_string<char> >',
                                       'PrivateABI' => 1,
                                       'Size' => '32',
                                       'TParam' => {
                                                     '0' => {
                                                              'key' => '_Up',
                                                              'type' => '14234'
                                                            }
                                                   },
                                       'Type' => 'Union'
                                     },
                          '28324' => {
                                       'Base' => {
                                                   '27564' => {
                                                                'pos' => '0'
                                                              }
                                                 },
                                       'Header' => 'optional',
                                       'Line' => '416',
                                       'Name' => 'struct std::_Optional_payload<std::__cxx11::basic_string<char> >',
                                       'NameSpace' => 'std',
                                       'PrivateABI' => 1,
                                       'Size' => '40',
                                       'TParam' => {
                                                     '0' => {
                                                              'key' => '_Tp',
                                                              'type' => '14234'
                                                            }
                                                   },
                                       'Type' => 'Struct'
                                     },
                          '28770' => {
                                       'Header' => 'optional',
                                       'Line' => '485',
                                       'Memb' => {
                                                   '0' => {
                                                            'name' => '_M_payload',
                                                            'offset' => '0',
                                                            'type' => '28324'
                                                          }
                                                 },
                                       'Name' => 'struct std::_Optional_base<std::__cxx11::basic_string<char> >',
                                       'NameSpace' => 'std',
                                       'PrivateABI' => 1,
                                       'Size' => '40',
                                       'TParam' => {
                                                     '0' => {
                                                              'key' => '_Tp',
                                                              'type' => '14234'
                                                            }
                                                   },
                                       'Type' => 'Struct'
                                     },
                          '29128' => {
                                       'Header' => 'enable_special_members.h',
                                       'Line' => '89',
                                       'Name' => 'struct std::_Enable_copy_move<true, true, true, true, std::optional<std::__cxx11::basic_string<char> > >',
                                       'NameSpace' => 'std',
                                       'PrivateABI' => 1,
                                       'Size' => '1',
                                       'TParam' => {
                                                     '0' => {
                                                              'key' => '_Copy',
                                                              'type' => '143846',
                                                              'val' => '1'
                                                            },
                                                     '1' => {
                                                              'key' => '_CopyAssignment',
                                                              'type' => '143846',
                                                              'val' => '1'
                                                            },
                                                     '2' => {
                                                              'key' => '_Move',
                                                              'type' => '143846',
                                                              'val' => '1'
                                                            },
                                                     '3' => {
                                                              'key' => '_MoveAssignment',
                                                              'type' => '143846',
                                                              'val' => '1'
                                                            },
                                                     '4' => {
                                                              'key' => '_Tag',
                                                              'type' => '29219'
                                                            }
                                                   },
                                       'Type' => 'Struct'
                                     },
                          '29219' => {
                                       'Base' => {
                                                   '28770' => {
                                                                'pos' => '0'
                                                              },
                                                   '29128' => {
                                                                'pos' => '1'
                                                              }
                                                 },
                                       'Header' => 'optional',
                                       'Line' => '778',
                                       'Name' => 'std::optional<std::__cxx11::basic_string<char> >',
                                       'NameSpace' => 'std',
                                       'PrivateABI' => 1,
                                       'Size' => '40',
                                       'TParam' => {
                                                     '0' => {
                                                              'key' => '_Tp',
                                                              'type' => '14234'
                                                            }
                                                   },
                                       'Type' => 'Class'
                                     },
                          '29805' => {
                                       'Header' => 'new_allocator.h',
                                       'Line' => '63',
                                       'Name' => 'std::__new_allocator<unsigned char>',
                                       'NameSpace' => 'std',
                                       'PrivateABI' => 1,
                                       'Size' => '1',
                                       'TParam' => {
                                                     '0' => {
                                                              'key' => '_Tp',
                                                              'type' => '143880'
                                                            }
                                                   },
                                       'Type' => 'Class'
                                     },
                          '30049' => {
                                       'Base' => {
                                                   '29805' => {
                                                                'pos' => '0'
                                                              }
                                                 },
                                       'Header' => 'allocator.h',
                                       'Line' => '133',
                                       'Name' => 'std::allocator<unsigned char>',
                                       'NameSpace' => 'std',
                                       'PrivateABI' => 1,
                                       'Size' => '1',
                                       'TParam' => {
                                                     '0' => {
                                                              'name' => 'unsigned char'
                                                            }
                                                   },
                                       'Type' => 'Class'
                                     },
                          '30265' => {
                                       'Copied' => 1,
                                       'Header' => 'alloc_traits.h',
                                       'Line' => '560',
                                       'Name' => 'struct std::allocator_traits<std::allocator<unsigned char> >',
                                       'NameSpace' => 'std',
                                       'PrivateABI' => 1,
                                       'Size' => '1',
                                       'TParam' => {
                                                     '0' => {
                                                              'type' => '30049'
                                                            }
                                                   },
                                       'Type' => 'Struct'
                                     },
                          '30279' => {
                                       'BaseType' => '165382',
                                       'Header' => 'alloc_traits.h',
                                       'Line' => '569',
                                       'Name' => 'std::allocator_traits<std::allocator<unsigned char> >::pointer',
                                       'NameSpace' => 'std::allocator_traits<std::allocator<unsigned char> >',
                                       'PrivateABI' => 1,
                                       'Size' => '8',
                                       'Type' => 'Typedef'
                                     },
                          '30519' => {
                                       'Header' => 'stl_vector.h',
                                       'Line' => '91',
                                       'Memb' => {
                                                   '0' => {
                                                            'name' => '_M_impl',
                                                            'offset' => '0',
                                                            'type' => '30718'
                                                          }
                                                 },
                                       'Name' => 'struct std::_Vector_base<unsigned char, std::allocator<unsigned char> >',
                                       'NameSpace' => 'std',
                                       'PrivateABI' => 1,
                                       'Size' => '24',
                                       'TParam' => {
                                                     '0' => {
                                                              'key' => '_Tp',
                                                              'type' => '143880'
                                                            },
                                                     '1' => {
                                                              'key' => '_Alloc',
                                                              'type' => '30049'
                                                            }
                                                   },
                                       'Type' => 'Struct'
                                     },
                          '30532' => {
                                       'Header' => 'stl_vector.h',
                                       'Line' => '98',
                                       'Memb' => {
                                                   '0' => {
                                                            'name' => '_M_start',
                                                            'offset' => '0',
                                                            'type' => '30706'
                                                          },
                                                   '1' => {
                                                            'name' => '_M_finish',
                                                            'offset' => '8',
                                                            'type' => '30706'
                                                          },
                                                   '2' => {
                                                            'name' => '_M_end_of_storage',
                                                            'offset' => '22',
                                                            'type' => '30706'
                                                          }
                                                 },
                                       'Name' => 'struct std::_Vector_base<unsigned char, std::allocator<unsigned char> >::_Vector_impl_data',
                                       'NameSpace' => 'std::_Vector_base<unsigned char, std::allocator<unsigned char> >',
                                       'PrivateABI' => 1,
                                       'Size' => '24',
                                       'Type' => 'Struct'
                                     },
                          '30706' => {
                                       'BaseType' => '146811',
                                       'Header' => 'stl_vector.h',
                                       'Line' => '96',
                                       'Name' => 'std::_Vector_base<unsigned char, std::allocator<unsigned char> >::pointer',
                                       'NameSpace' => 'std::_Vector_base<unsigned char, std::allocator<unsigned char> >',
                                       'PrivateABI' => 1,
                                       'Size' => '8',
                                       'Type' => 'Typedef'
                                     },
                          '30718' => {
                                       'Base' => {
                                                   '30049' => {
                                                                'pos' => '0'
                                                              },
                                                   '30532' => {
                                                                'pos' => '1'
                                                              }
                                                 },
                                       'Header' => 'stl_vector.h',
                                       'Line' => '139',
                                       'Name' => 'struct std::_Vector_base<unsigned char, std::allocator<unsigned char> >::_Vector_impl',
                                       'NameSpace' => 'std::_Vector_base<unsigned char, std::allocator<unsigned char> >',
                                       'PrivateABI' => 1,
                                       'Size' => '24',
                                       'Type' => 'Struct'
                                     },
                          '31519' => {
                                       'Base' => {
                                                   '30519' => {
                                                                'access' => 'protected',
                                                                'pos' => '0'
                                                              }
                                                 },
                                       'Header' => 'stl_vector.h',
                                       'Line' => '458',
                                       'Name' => 'std::vector<unsigned char>',
                                       'NameSpace' => 'std',
                                       'PrivateABI' => 1,
                                       'Size' => '24',
                                       'TParam' => {
                                                     '0' => {
                                                              'key' => '_Tp',
                                                              'type' => '143880'
                                                            }
                                                   },
                                       'Type' => 'Class'
                                     },
                          '35041' => {
                                       'Base' => {
                                                   '23311' => {
                                                                'pos' => '0'
                                                              }
                                                 },
                                       'Header' => 'bitset',
                                       'Line' => '812',
                                       'Name' => 'std::bitset<16ul>',
                                       'NameSpace' => 'std',
                                       'PrivateABI' => 1,
                                       'Size' => '8',
                                       'TParam' => {
                                                     '0' => {
                                                              'key' => '_Nb',
                                                              'type' => '143868',
                                                              'val' => '16'
                                                            }
                                                   },
                                       'Type' => 'Class'
                                     },
                          '36411' => {
                                       'Base' => {
                                                   '23311' => {
                                                                'pos' => '0'
                                                              }
                                                 },
                                       'Header' => 'bitset',
                                       'Line' => '812',
                                       'Name' => 'std::bitset<32ul>',
                                       'NameSpace' => 'std',
                                       'PrivateABI' => 1,
                                       'Size' => '8',
                                       'TParam' => {
                                                     '0' => {
                                                              'key' => '_Nb',
                                                              'type' => '143868',
                                                              'val' => '32'
                                                            }
                                                   },
                                       'Type' => 'Class'
                                     },
                          '37781' => {
                                       'Header' => 'new_allocator.h',
                                       'Line' => '63',
                                       'Name' => 'std::__new_allocator<unsigned long>',
                                       'NameSpace' => 'std',
                                       'PrivateABI' => 1,
                                       'Size' => '1',
                                       'TParam' => {
                                                     '0' => {
                                                              'key' => '_Tp',
                                                              'type' => '143868'
                                                            }
                                                   },
                                       'Type' => 'Class'
                                     },
                          '38025' => {
                                       'Base' => {
                                                   '37781' => {
                                                                'pos' => '0'
                                                              }
                                                 },
                                       'Header' => 'allocator.h',
                                       'Line' => '133',
                                       'Name' => 'std::allocator<unsigned long>',
                                       'NameSpace' => 'std',
                                       'PrivateABI' => 1,
                                       'Size' => '1',
                                       'TParam' => {
                                                     '0' => {
                                                              'name' => 'unsigned long'
                                                            }
                                                   },
                                       'Type' => 'Class'
                                     },
                          '38241' => {
                                       'Copied' => 1,
                                       'Header' => 'alloc_traits.h',
                                       'Line' => '560',
                                       'Name' => 'struct std::allocator_traits<std::allocator<unsigned long> >',
                                       'NameSpace' => 'std',
                                       'PrivateABI' => 1,
                                       'Size' => '1',
                                       'TParam' => {
                                                     '0' => {
                                                              'type' => '38025'
                                                            }
                                                   },
                                       'Type' => 'Struct'
                                     },
                          '38255' => {
                                       'BaseType' => '165742',
                                       'Header' => 'alloc_traits.h',
                                       'Line' => '569',
                                       'Name' => 'std::allocator_traits<std::allocator<unsigned long> >::pointer',
                                       'NameSpace' => 'std::allocator_traits<std::allocator<unsigned long> >',
                                       'PrivateABI' => 1,
                                       'Size' => '8',
                                       'Type' => 'Typedef'
                                     },
                          '38641' => {
                                       'Header' => 'stl_vector.h',
                                       'Line' => '91',
                                       'Memb' => {
                                                   '0' => {
                                                            'name' => '_M_impl',
                                                            'offset' => '0',
                                                            'type' => '38840'
                                                          }
                                                 },
                                       'Name' => 'struct std::_Vector_base<unsigned long, std::allocator<unsigned long> >',
                                       'NameSpace' => 'std',
                                       'PrivateABI' => 1,
                                       'Size' => '24',
                                       'TParam' => {
                                                     '0' => {
                                                              'key' => '_Tp',
                                                              'type' => '143868'
                                                            },
                                                     '1' => {
                                                              'key' => '_Alloc',
                                                              'type' => '38025'
                                                            }
                                                   },
                                       'Type' => 'Struct'
                                     },
                          '38654' => {
                                       'Header' => 'stl_vector.h',
                                       'Line' => '98',
                                       'Memb' => {
                                                   '0' => {
                                                            'name' => '_M_start',
                                                            'offset' => '0',
                                                            'type' => '38828'
                                                          },
                                                   '1' => {
                                                            'name' => '_M_finish',
                                                            'offset' => '8',
                                                            'type' => '38828'
                                                          },
                                                   '2' => {
                                                            'name' => '_M_end_of_storage',
                                                            'offset' => '22',
                                                            'type' => '38828'
                                                          }
                                                 },
                                       'Name' => 'struct std::_Vector_base<unsigned long, std::allocator<unsigned long> >::_Vector_impl_data',
                                       'NameSpace' => 'std::_Vector_base<unsigned long, std::allocator<unsigned long> >',
                                       'PrivateABI' => 1,
                                       'Size' => '24',
                                       'Type' => 'Struct'
                                     },
                          '38828' => {
                                       'BaseType' => '147673',
                                       'Header' => 'stl_vector.h',
                                       'Line' => '96',
                                       'Name' => 'std::_Vector_base<unsigned long, std::allocator<unsigned long> >::pointer',
                                       'NameSpace' => 'std::_Vector_base<unsigned long, std::allocator<unsigned long> >',
                                       'PrivateABI' => 1,
                                       'Size' => '8',
                                       'Type' => 'Typedef'
                                     },
                          '38840' => {
                                       'Base' => {
                                                   '38025' => {
                                                                'pos' => '0'
                                                              },
                                                   '38654' => {
                                                                'pos' => '1'
                                                              }
                                                 },
                                       'Header' => 'stl_vector.h',
                                       'Line' => '139',
                                       'Name' => 'struct std::_Vector_base<unsigned long, std::allocator<unsigned long> >::_Vector_impl',
                                       'NameSpace' => 'std::_Vector_base<unsigned long, std::allocator<unsigned long> >',
                                       'PrivateABI' => 1,
                                       'Size' => '24',
                                       'Type' => 'Struct'
                                     },
                          '39641' => {
                                       'Base' => {
                                                   '38641' => {
                                                                'access' => 'protected',
                                                                'pos' => '0'
                                                              }
                                                 },
                                       'Header' => 'stl_vector.h',
                                       'Line' => '458',
                                       'Name' => 'std::vector<unsigned long>',
                                       'NameSpace' => 'std',
                                       'PrivateABI' => 1,
                                       'Size' => '24',
                                       'TParam' => {
                                                     '0' => {
                                                              'key' => '_Tp',
                                                              'type' => '143868'
                                                            }
                                                   },
                                       'Type' => 'Class'
                                     },
                          '43313' => {
                                       'Header' => 'new_allocator.h',
                                       'Line' => '63',
                                       'Name' => 'std::__new_allocator<std::pair<unsigned short const, pldm::fw_update::DescriptorData> >',
                                       'NameSpace' => 'std',
                                       'PrivateABI' => 1,
                                       'Size' => '1',
                                       'TParam' => {
                                                     '0' => {
                                                              'key' => '_Tp',
                                                              'type' => '43557'
                                                            }
                                                   },
                                       'Type' => 'Class'
                                     },
                          '43557' => {
                                       'Base' => {
                                                   '119036' => {
                                                                 'pos' => '0'
                                                               }
                                                 },
                                       'Header' => 'stl_pair.h',
                                       'Line' => '302',
                                       'Memb' => {
                                                   '0' => {
                                                            'name' => 'first',
                                                            'offset' => '0',
                                                            'type' => '143899'
                                                          },
                                                   '1' => {
                                                            'name' => 'second',
                                                            'offset' => '8',
                                                            'type' => '163603'
                                                          }
                                                 },
                                       'Name' => 'struct std::pair<unsigned short const, pldm::fw_update::DescriptorData>',
                                       'NameSpace' => 'std',
                                       'PrivateABI' => 1,
                                       'Size' => '80',
                                       'TParam' => {
                                                     '0' => {
                                                              'key' => '_T1',
                                                              'type' => '143899'
                                                            },
                                                     '1' => {
                                                              'key' => '_T2',
                                                              'type' => '163603'
                                                            }
                                                   },
                                       'Type' => 'Struct'
                                     },
                          '44093' => {
                                       'Base' => {
                                                   '43313' => {
                                                                'pos' => '0'
                                                              }
                                                 },
                                       'Header' => 'allocator.h',
                                       'Line' => '133',
                                       'Name' => 'std::allocator<std::pair<unsigned short const, pldm::fw_update::DescriptorData> >',
                                       'NameSpace' => 'std',
                                       'PrivateABI' => 1,
                                       'Size' => '1',
                                       'TParam' => {
                                                     '0' => {
                                                              'type' => '43557'
                                                            }
                                                   },
                                       'Type' => 'Class'
                                     },
                          '44741' => {
                                       'Base' => {
                                                   '24437' => {
                                                                'pos' => '0'
                                                              }
                                                 },
                                       'Copied' => 1,
                                       'Header' => 'stl_tree.h',
                                       'Line' => '214',
                                       'Memb' => {
                                                   '0' => {
                                                            'name' => '_M_storage',
                                                            'offset' => '50',
                                                            'type' => '153640'
                                                          }
                                                 },
                                       'Name' => 'struct std::_Rb_tree_node<std::pair<unsigned short const, pldm::fw_update::DescriptorData> >',
                                       'NameSpace' => 'std',
                                       'PrivateABI' => 1,
                                       'Size' => '112',
                                       'TParam' => {
                                                     '0' => {
                                                              'key' => '_Val',
                                                              'type' => '43557'
                                                            }
                                                   },
                                       'Type' => 'Struct'
                                     },
                          '45616' => {
                                       'Base' => {
                                                   '45832' => {
                                                                'pos' => '0'
                                                              }
                                                 },
                                       'Header' => 'allocator.h',
                                       'Line' => '133',
                                       'Name' => 'std::allocator<std::_Rb_tree_node<std::pair<unsigned short const, pldm::fw_update::DescriptorData> > >',
                                       'NameSpace' => 'std',
                                       'PrivateABI' => 1,
                                       'Size' => '1',
                                       'TParam' => {
                                                     '0' => {
                                                              'type' => '44741'
                                                            }
                                                   },
                                       'Type' => 'Class'
                                     },
                          '45832' => {
                                       'Header' => 'new_allocator.h',
                                       'Line' => '63',
                                       'Name' => 'std::__new_allocator<std::_Rb_tree_node<std::pair<unsigned short const, pldm::fw_update::DescriptorData> > >',
                                       'NameSpace' => 'std',
                                       'PrivateABI' => 1,
                                       'Size' => '1',
                                       'TParam' => {
                                                     '0' => {
                                                              'key' => '_Tp',
                                                              'type' => '44741'
                                                            }
                                                   },
                                       'Type' => 'Class'
                                     },
                          '46076' => {
                                       'Header' => 'stl_function.h',
                                       'Line' => '131',
                                       'Name' => 'struct std::binary_function<unsigned short, unsigned short, bool>',
                                       'NameSpace' => 'std',
                                       'PrivateABI' => 1,
                                       'Size' => '1',
                                       'TParam' => {
                                                     '0' => {
                                                              'key' => '_Arg1',
                                                              'type' => '143892'
                                                            },
                                                     '1' => {
                                                              'key' => '_Arg2',
                                                              'type' => '143892'
                                                            },
                                                     '2' => {
                                                              'key' => '_Result',
                                                              'type' => '143846'
                                                            }
                                                   },
                                       'Type' => 'Struct'
                                     },
                          '46117' => {
                                       'Base' => {
                                                   '46076' => {
                                                                'pos' => '0'
                                                              }
                                                 },
                                       'Copied' => 1,
                                       'Header' => 'stl_function.h',
                                       'Line' => '400',
                                       'Name' => 'struct std::less<unsigned short>',
                                       'NameSpace' => 'std',
                                       'PrivateABI' => 1,
                                       'Size' => '1',
                                       'TParam' => {
                                                     '0' => {
                                                              'key' => '_Tp',
                                                              'type' => '143892'
                                                            }
                                                   },
                                       'Type' => 'Struct'
                                     },
                          '46193' => {
                                       'Header' => 'stl_tree.h',
                                       'Line' => '140',
                                       'Memb' => {
                                                   '0' => {
                                                            'name' => '_M_key_compare',
                                                            'offset' => '0',
                                                            'type' => '46117'
                                                          }
                                                 },
                                       'Name' => 'struct std::_Rb_tree_key_compare<std::less<unsigned short> >',
                                       'NameSpace' => 'std',
                                       'PrivateABI' => 1,
                                       'Size' => '1',
                                       'TParam' => {
                                                     '0' => {
                                                              'key' => '_Key_compare',
                                                              'type' => '46117'
                                                            }
                                                   },
                                       'Type' => 'Struct'
                                     },
                          '46353' => {
                                       'Header' => 'stl_tree.h',
                                       'Line' => '1020',
                                       'Memb' => {
                                                   '0' => {
                                                            'access' => 'protected',
                                                            'name' => '_M_impl',
                                                            'offset' => '0',
                                                            'type' => '46367'
                                                          }
                                                 },
                                       'Name' => 'std::_Rb_tree<unsigned short, std::pair<unsigned short const, pldm::fw_update::DescriptorData>, std::_Select1st<std::pair<unsigned short const, pldm::fw_update::DescriptorData> >, std::less<unsigned short>, std::allocator<std::pair<unsigned short const, pldm::fw_update::DescriptorData> > >',
                                       'NameSpace' => 'std',
                                       'PrivateABI' => 1,
                                       'Size' => '48',
                                       'TParam' => {
                                                     '0' => {
                                                              'key' => '_Key',
                                                              'type' => '143892'
                                                            },
                                                     '1' => {
                                                              'key' => '_Val',
                                                              'type' => '43557'
                                                            },
                                                     '2' => {
                                                              'key' => '_KeyOfValue',
                                                              'type' => '126849'
                                                            },
                                                     '3' => {
                                                              'key' => '_Compare',
                                                              'type' => '46117'
                                                            },
                                                     '4' => {
                                                              'key' => '_Alloc',
                                                              'type' => '44093'
                                                            }
                                                   },
                                       'Type' => 'Class'
                                     },
                          '46367' => {
                                       'Base' => {
                                                   '24599' => {
                                                                'pos' => '2'
                                                              },
                                                   '45616' => {
                                                                'pos' => '0'
                                                              },
                                                   '46193' => {
                                                                'pos' => '1'
                                                              }
                                                 },
                                       'Header' => 'stl_tree.h',
                                       'Line' => '1303',
                                       'Name' => 'struct std::_Rb_tree<unsigned short, std::pair<unsigned short const, pldm::fw_update::DescriptorData>, std::_Select1st<std::pair<unsigned short const, pldm::fw_update::DescriptorData> >, std::less<unsigned short>, std::allocator<std::pair<unsigned short const, pldm::fw_update::DescriptorData> > >::_Rb_tree_impl<std::less<unsigned short> >',
                                       'NameSpace' => 'std::_Rb_tree<unsigned short, std::pair<unsigned short const, pldm::fw_update::DescriptorData>, std::_Select1st<std::pair<unsigned short const, pldm::fw_update::DescriptorData> >, std::less<unsigned short>, std::allocator<std::pair<unsigned short const, pldm::fw_update::DescriptorData> > >',
                                       'PrivateABI' => 1,
                                       'Protected' => 1,
                                       'Size' => '48',
                                       'TParam' => {
                                                     '0' => {
                                                              'key' => '_Key_compare',
                                                              'type' => '46117'
                                                            }
                                                   },
                                       'Type' => 'Struct'
                                     },
                          '51947' => {
                                       'Header' => 'stl_map.h',
                                       'Line' => '105',
                                       'Memb' => {
                                                   '0' => {
                                                            'access' => 'private',
                                                            'name' => '_M_t',
                                                            'offset' => '0',
                                                            'type' => '51960'
                                                          }
                                                 },
                                       'Name' => 'std::map<unsigned short, pldm::fw_update::DescriptorData>',
                                       'NameSpace' => 'std',
                                       'PrivateABI' => 1,
                                       'Size' => '48',
                                       'TParam' => {
                                                     '0' => {
                                                              'key' => '_Key',
                                                              'type' => '143892'
                                                            },
                                                     '1' => {
                                                              'key' => '_Tp',
                                                              'type' => '163603'
                                                            }
                                                   },
                                       'Type' => 'Class'
                                     },
                          '51960' => {
                                       'BaseType' => '46353',
                                       'Header' => 'stl_map.h',
                                       'Line' => '158',
                                       'Name' => 'std::map<unsigned short, pldm::fw_update::DescriptorData>::_Rep_type',
                                       'NameSpace' => 'std::map<unsigned short, pldm::fw_update::DescriptorData>',
                                       'Private' => 1,
                                       'PrivateABI' => 1,
                                       'Size' => '48',
                                       'Type' => 'Typedef'
                                     },
                          '68754' => {
                                       'Copied' => 1,
                                       'Header' => 'unicode.h',
                                       'Line' => '72',
                                       'Name' => 'struct std::__unicode::_Repl',
                                       'NameSpace' => 'std::__unicode',
                                       'PrivateABI' => 1,
                                       'Size' => '1',
                                       'Type' => 'Struct'
                                     },
                          '87733' => {
                                       'Header' => 'unicode.h',
                                       'Line' => '93',
                                       'Memb' => {
                                                   '0' => {
                                                            'access' => 'private',
                                                            'name' => '_M_buf',
                                                            'offset' => '0',
                                                            'type' => '123849'
                                                          },
                                                   '1' => {
                                                            'access' => 'private',
                                                            'name' => '_M_first_and_curr',
                                                            'offset' => '8',
                                                            'type' => '87746'
                                                          },
                                                   '2' => {
                                                            'access' => 'private',
                                                            'name' => '_M_buf_index',
                                                            'offset' => '36',
                                                            'type' => '161042'
                                                          },
                                                   '3' => {
                                                            'access' => 'private',
                                                            'name' => '_M_buf_last',
                                                            'offset' => '37',
                                                            'type' => '161042'
                                                          },
                                                   '4' => {
                                                            'access' => 'private',
                                                            'name' => '_M_to_increment',
                                                            'offset' => '38',
                                                            'type' => '161042'
                                                          },
                                                   '5' => {
                                                            'access' => 'private',
                                                            'name' => '_M_last',
                                                            'offset' => '50',
                                                            'type' => '155794'
                                                          }
                                                 },
                                       'Name' => 'std::__unicode::_Utf_iterator<char, char32_t, char const*, char const*, std::__unicode::_Repl>',
                                       'NameSpace' => 'std::__unicode',
                                       'PrivateABI' => 1,
                                       'Size' => '40',
                                       'TParam' => {
                                                     '0' => {
                                                              'key' => '_FromFmt',
                                                              'type' => '155291'
                                                            },
                                                     '1' => {
                                                              'key' => '_ToFmt',
                                                              'type' => '143995'
                                                            },
                                                     '2' => {
                                                              'key' => '_Iter',
                                                              'type' => '155794'
                                                            },
                                                     '3' => {
                                                              'key' => '_Sent',
                                                              'type' => '155794'
                                                            },
                                                     '4' => {
                                                              'key' => '_ErrorHandler',
                                                              'type' => '68754'
                                                            }
                                                   },
                                       'Type' => 'Class'
                                     },
                          '87746' => {
                                       'Header' => 'unicode.h',
                                       'Line' => '509',
                                       'Memb' => {
                                                   '0' => {
                                                            'name' => '_M_first',
                                                            'offset' => '0',
                                                            'type' => '155794'
                                                          },
                                                   '1' => {
                                                            'name' => '_M_curr',
                                                            'offset' => '8',
                                                            'type' => '155794'
                                                          }
                                                 },
                                       'Name' => 'struct std::__unicode::_Utf_iterator<char, char32_t, char const*, char const*, std::__unicode::_Repl>::_First_and_curr<char const*>',
                                       'NameSpace' => 'std::__unicode::_Utf_iterator<char, char32_t, char const*, char const*, std::__unicode::_Repl>',
                                       'Private' => 1,
                                       'PrivateABI' => 1,
                                       'Size' => '16',
                                       'TParam' => {
                                                     '0' => {
                                                              'key' => '_It',
                                                              'type' => '155794'
                                                            }
                                                   },
                                       'Type' => 'Struct'
                                     },
                          '89072' => {
                                       'Header' => 'unicode.h',
                                       'Line' => '93',
                                       'Memb' => {
                                                   '0' => {
                                                            'access' => 'private',
                                                            'name' => '_M_buf',
                                                            'offset' => '0',
                                                            'type' => '131604'
                                                          },
                                                   '1' => {
                                                            'access' => 'private',
                                                            'name' => '_M_first_and_curr',
                                                            'offset' => '8',
                                                            'type' => '89085'
                                                          },
                                                   '2' => {
                                                            'access' => 'private',
                                                            'name' => '_M_buf_index',
                                                            'offset' => '36',
                                                            'type' => '161042'
                                                          },
                                                   '3' => {
                                                            'access' => 'private',
                                                            'name' => '_M_buf_last',
                                                            'offset' => '37',
                                                            'type' => '161042'
                                                          },
                                                   '4' => {
                                                            'access' => 'private',
                                                            'name' => '_M_to_increment',
                                                            'offset' => '38',
                                                            'type' => '161042'
                                                          },
                                                   '5' => {
                                                            'access' => 'private',
                                                            'name' => '_M_last',
                                                            'offset' => '50',
                                                            'type' => '158853'
                                                          }
                                                 },
                                       'Name' => 'std::__unicode::_Utf_iterator<char32_t, char, char32_t const*, char32_t const*, std::__unicode::_Repl>',
                                       'NameSpace' => 'std::__unicode',
                                       'PrivateABI' => 1,
                                       'Size' => '40',
                                       'TParam' => {
                                                     '0' => {
                                                              'key' => '_FromFmt',
                                                              'type' => '143995'
                                                            },
                                                     '1' => {
                                                              'key' => '_ToFmt',
                                                              'type' => '155291'
                                                            },
                                                     '2' => {
                                                              'key' => '_Iter',
                                                              'type' => '158853'
                                                            },
                                                     '3' => {
                                                              'key' => '_Sent',
                                                              'type' => '158853'
                                                            },
                                                     '4' => {
                                                              'key' => '_ErrorHandler',
                                                              'type' => '68754'
                                                            }
                                                   },
                                       'Type' => 'Class'
                                     },
                          '89085' => {
                                       'Header' => 'unicode.h',
                                       'Line' => '509',
                                       'Memb' => {
                                                   '0' => {
                                                            'name' => '_M_first',
                                                            'offset' => '0',
                                                            'type' => '158853'
                                                          },
                                                   '1' => {
                                                            'name' => '_M_curr',
                                                            'offset' => '8',
                                                            'type' => '158853'
                                                          }
                                                 },
                                       'Name' => 'struct std::__unicode::_Utf_iterator<char32_t, char, char32_t const*, char32_t const*, std::__unicode::_Repl>::_First_and_curr<char32_t const*>',
                                       'NameSpace' => 'std::__unicode::_Utf_iterator<char32_t, char, char32_t const*, char32_t const*, std::__unicode::_Repl>',
                                       'Private' => 1,
                                       'PrivateABI' => 1,
                                       'Size' => '16',
                                       'TParam' => {
                                                     '0' => {
                                                              'key' => '_It',
                                                              'type' => '158853'
                                                            }
                                                   },
                                       'Type' => 'Struct'
                                     },
                          '119036' => {
                                        'Copied' => 1,
                                        'Header' => 'stl_pair.h',
                                        'Line' => '278',
                                        'Name' => 'std::__pair_base<unsigned short const, pldm::fw_update::DescriptorData>',
                                        'NameSpace' => 'std',
                                        'PrivateABI' => 1,
                                        'Size' => '1',
                                        'TParam' => {
                                                      '0' => {
                                                               'key' => '_U1',
                                                               'type' => '143899'
                                                             },
                                                      '1' => {
                                                               'key' => '_U2',
                                                               'type' => '163603'
                                                             }
                                                    },
                                        'Type' => 'Class'
                                      },
                          '123804' => {
                                        'Header' => 'array',
                                        'Line' => '61',
                                        'Name' => 'struct std::__array_traits<char32_t, 1ul>',
                                        'NameSpace' => 'std',
                                        'PrivateABI' => 1,
                                        'Size' => '1',
                                        'TParam' => {
                                                      '0' => {
                                                               'key' => '_Tp',
                                                               'type' => '143995'
                                                             },
                                                      '1' => {
                                                               'key' => '_Nm',
                                                               'type' => '143868',
                                                               'val' => '1'
                                                             }
                                                    },
                                        'Type' => 'Struct'
                                      },
                          '123817' => {
                                        'BaseType' => '169197',
                                        'Header' => 'array',
                                        'Line' => '63',
                                        'Name' => 'std::__array_traits<char32_t, 1ul>::_Type',
                                        'NameSpace' => 'std::__array_traits<char32_t, 1ul>',
                                        'PrivateABI' => 1,
                                        'Size' => '4',
                                        'Type' => 'Typedef'
                                      },
                          '123849' => {
                                        'Copied' => 1,
                                        'Header' => 'array',
                                        'Line' => '102',
                                        'Memb' => {
                                                    '0' => {
                                                             'name' => '_M_elems',
                                                             'offset' => '0',
                                                             'type' => '123817'
                                                           }
                                                  },
                                        'Name' => 'struct std::array<char32_t, 1ul>',
                                        'NameSpace' => 'std',
                                        'PrivateABI' => 1,
                                        'Size' => '4',
                                        'TParam' => {
                                                      '0' => {
                                                               'key' => '_Tp',
                                                               'type' => '143995'
                                                             },
                                                      '1' => {
                                                               'key' => '_Nm',
                                                               'type' => '143868',
                                                               'val' => '1'
                                                             }
                                                    },
                                        'Type' => 'Struct'
                                      },
                          '126817' => {
                                        'Header' => 'stl_function.h',
                                        'Line' => '117',
                                        'Name' => 'struct std::unary_function<std::pair<unsigned short const, pldm::fw_update::DescriptorData>, unsigned short const>',
                                        'NameSpace' => 'std',
                                        'PrivateABI' => 1,
                                        'Size' => '1',
                                        'TParam' => {
                                                      '0' => {
                                                               'key' => '_Arg',
                                                               'type' => '43557'
                                                             },
                                                      '1' => {
                                                               'key' => '_Result',
                                                               'type' => '143899'
                                                             }
                                                    },
                                        'Type' => 'Struct'
                                      },
                          '126849' => {
                                        'Base' => {
                                                    '126817' => {
                                                                  'pos' => '0'
                                                                }
                                                  },
                                        'Copied' => 1,
                                        'Header' => 'stl_function.h',
                                        'Line' => '1171',
                                        'Name' => 'struct std::_Select1st<std::pair<unsigned short const, pldm::fw_update::DescriptorData> >',
                                        'NameSpace' => 'std',
                                        'PrivateABI' => 1,
                                        'Size' => '1',
                                        'TParam' => {
                                                      '0' => {
                                                               'key' => '_Pair',
                                                               'type' => '43557'
                                                             }
                                                    },
                                        'Type' => 'Struct'
                                      },
                          '131559' => {
                                        'Header' => 'array',
                                        'Line' => '61',
                                        'Name' => 'struct std::__array_traits<char, 4ul>',
                                        'NameSpace' => 'std',
                                        'PrivateABI' => 1,
                                        'Size' => '1',
                                        'TParam' => {
                                                      '0' => {
                                                               'key' => '_Tp',
                                                               'type' => '155291'
                                                             },
                                                      '1' => {
                                                               'key' => '_Nm',
                                                               'type' => '143868',
                                                               'val' => '4'
                                                             }
                                                    },
                                        'Type' => 'Struct'
                                      },
                          '131572' => {
                                        'BaseType' => '155275',
                                        'Header' => 'array',
                                        'Line' => '63',
                                        'Name' => 'std::__array_traits<char, 4ul>::_Type',
                                        'NameSpace' => 'std::__array_traits<char, 4ul>',
                                        'PrivateABI' => 1,
                                        'Size' => '4',
                                        'Type' => 'Typedef'
                                      },
                          '131604' => {
                                        'Copied' => 1,
                                        'Header' => 'array',
                                        'Line' => '102',
                                        'Memb' => {
                                                    '0' => {
                                                             'name' => '_M_elems',
                                                             'offset' => '0',
                                                             'type' => '131572'
                                                           }
                                                  },
                                        'Name' => 'struct std::array<char, 4ul>',
                                        'NameSpace' => 'std',
                                        'PrivateABI' => 1,
                                        'Size' => '4',
                                        'TParam' => {
                                                      '0' => {
                                                               'key' => '_Tp',
                                                               'type' => '155291'
                                                             },
                                                      '1' => {
                                                               'key' => '_Nm',
                                                               'type' => '143868',
                                                               'val' => '4'
                                                             }
                                                    },
                                        'Type' => 'Struct'
                                      },
                          '143846' => {
                                        'Name' => 'bool',
                                        'Size' => '1',
                                        'Type' => 'Intrinsic'
                                      },
                          '143868' => {
                                        'Name' => 'unsigned long',
                                        'Size' => '8',
                                        'Type' => 'Intrinsic'
                                      },
                          '143880' => {
                                        'Name' => 'unsigned char',
                                        'Size' => '1',
                                        'Type' => 'Intrinsic'
                                      },
                          '143892' => {
                                        'Name' => 'unsigned short',
                                        'Size' => '2',
                                        'Type' => 'Intrinsic'
                                      },
                          '143899' => {
                                        'BaseType' => '143892',
                                        'Name' => 'unsigned short const',
                                        'Size' => '2',
                                        'Type' => 'Const'
                                      },
                          '143904' => {
                                        'Name' => 'unsigned int',
                                        'Size' => '4',
                                        'Type' => 'Intrinsic'
                                      },
                          '143928' => {
                                        'Name' => 'signed char',
                                        'Size' => '1',
                                        'Type' => 'Intrinsic'
                                      },
                          '143995' => {
                                        'Name' => 'char32_t',
                                        'Size' => '4',
                                        'Type' => 'Intrinsic'
                                      },
                          '144002' => {
                                        'BaseType' => '143995',
                                        'Name' => 'char32_t const',
                                        'Size' => '4',
                                        'Type' => 'Const'
                                      },
                          '145129' => {
                                        'Base' => {
                                                    '13966' => {
                                                                 'pos' => '0'
                                                               }
                                                  },
                                        'Copied' => 1,
                                        'Header' => 'alloc_traits.h',
                                        'Line' => '47',
                                        'Name' => 'struct __gnu_cxx::__alloc_traits<std::allocator<char> >',
                                        'NameSpace' => '__gnu_cxx',
                                        'PrivateABI' => 1,
                                        'Size' => '1',
                                        'TParam' => {
                                                      '0' => {
                                                               'key' => '_Alloc',
                                                               'type' => '10276'
                                                             }
                                                    },
                                        'Type' => 'Struct'
                                      },
                          '145330' => {
                                        'BaseType' => '13980',
                                        'Header' => 'alloc_traits.h',
                                        'Line' => '56',
                                        'Name' => '__gnu_cxx::__alloc_traits<std::allocator<char> >::pointer',
                                        'NameSpace' => '__gnu_cxx::__alloc_traits<std::allocator<char> >',
                                        'PrivateABI' => 1,
                                        'Size' => '8',
                                        'Type' => 'Typedef'
                                      },
                          '145354' => {
                                        'BaseType' => '14043',
                                        'Header' => 'alloc_traits.h',
                                        'Line' => '58',
                                        'Name' => '__gnu_cxx::__alloc_traits<std::allocator<char> >::size_type',
                                        'NameSpace' => '__gnu_cxx::__alloc_traits<std::allocator<char> >',
                                        'PrivateABI' => 1,
                                        'Size' => '8',
                                        'Type' => 'Typedef'
                                      },
                          '146610' => {
                                        'Base' => {
                                                    '30265' => {
                                                                 'pos' => '0'
                                                               }
                                                  },
                                        'Copied' => 1,
                                        'Header' => 'alloc_traits.h',
                                        'Line' => '47',
                                        'Name' => 'struct __gnu_cxx::__alloc_traits<std::allocator<unsigned char> >',
                                        'NameSpace' => '__gnu_cxx',
                                        'PrivateABI' => 1,
                                        'Size' => '1',
                                        'TParam' => {
                                                      '0' => {
                                                               'key' => '_Alloc',
                                                               'type' => '30049'
                                                             }
                                                    },
                                        'Type' => 'Struct'
                                      },
                          '146811' => {
                                        'BaseType' => '30279',
                                        'Header' => 'alloc_traits.h',
                                        'Line' => '56',
                                        'Name' => '__gnu_cxx::__alloc_traits<std::allocator<unsigned char> >::pointer',
                                        'NameSpace' => '__gnu_cxx::__alloc_traits<std::allocator<unsigned char> >',
                                        'PrivateABI' => 1,
                                        'Size' => '8',
                                        'Type' => 'Typedef'
                                      },
                          '147472' => {
                                        'Base' => {
                                                    '38241' => {
                                                                 'pos' => '0'
                                                               }
                                                  },
                                        'Copied' => 1,
                                        'Header' => 'alloc_traits.h',
                                        'Line' => '47',
                                        'Name' => 'struct __gnu_cxx::__alloc_traits<std::allocator<unsigned long> >',
                                        'NameSpace' => '__gnu_cxx',
                                        'PrivateABI' => 1,
                                        'Size' => '1',
                                        'TParam' => {
                                                      '0' => {
                                                               'key' => '_Alloc',
                                                               'type' => '38025'
                                                             }
                                                    },
                                        'Type' => 'Struct'
                                      },
                          '147673' => {
                                        'BaseType' => '38255',
                                        'Header' => 'alloc_traits.h',
                                        'Line' => '56',
                                        'Name' => '__gnu_cxx::__alloc_traits<std::allocator<unsigned long> >::pointer',
                                        'NameSpace' => '__gnu_cxx::__alloc_traits<std::allocator<unsigned long> >',
                                        'PrivateABI' => 1,
                                        'Size' => '8',
                                        'Type' => 'Typedef'
                                      },
                          '153640' => {
                                        'Header' => 'aligned_buffer.h',
                                        'Line' => '49',
                                        'Memb' => {
                                                    '0' => {
                                                             'name' => '_M_storage',
                                                             'offset' => '0',
                                                             'type' => '168909'
                                                           }
                                                  },
                                        'Name' => 'struct __gnu_cxx::__aligned_membuf<std::pair<unsigned short const, pldm::fw_update::DescriptorData> >',
                                        'NameSpace' => '__gnu_cxx',
                                        'PrivateABI' => 1,
                                        'Size' => '80',
                                        'TParam' => {
                                                      '0' => {
                                                               'key' => '_Tp',
                                                               'type' => '43557'
                                                             }
                                                    },
                                        'Type' => 'Struct'
                                      },
                          '155109' => {
                                        'BaseType' => '143868',
                                        'Header' => 'stddef.h',
                                        'Line' => '229',
                                        'Name' => 'size_t',
                                        'PrivateABI' => 1,
                                        'Size' => '8',
                                        'Type' => 'Typedef'
                                      },
                          '155275' => {
                                        'BaseType' => '155291',
                                        'Name' => 'char[4]',
                                        'Size' => '4',
                                        'Type' => 'Array'
                                      },
                          '155291' => {
                                        'Name' => 'char',
                                        'Size' => '1',
                                        'Type' => 'Intrinsic'
                                      },
                          '155298' => {
                                        'BaseType' => '155291',
                                        'Name' => 'char const',
                                        'Size' => '1',
                                        'Type' => 'Const'
                                      },
                          '155794' => {
                                        'BaseType' => '155298',
                                        'Name' => 'char const*',
                                        'Size' => '8',
                                        'Type' => 'Pointer'
                                      },
                          '156626' => {
                                        'BaseType' => '155291',
                                        'Name' => 'char*',
                                        'Size' => '8',
                                        'Type' => 'Pointer'
                                      },
                          '158486' => {
                                        'BaseType' => '143880',
                                        'Header' => 'types.h',
                                        'Line' => '38',
                                        'Name' => '__uint8_t',
                                        'PrivateABI' => 1,
                                        'Size' => '1',
                                        'Type' => 'Typedef'
                                      },
                          '158510' => {
                                        'BaseType' => '143892',
                                        'Header' => 'types.h',
                                        'Line' => '40',
                                        'Name' => '__uint16_t',
                                        'PrivateABI' => 1,
                                        'Size' => '2',
                                        'Type' => 'Typedef'
                                      },
                          '158539' => {
                                        'BaseType' => '143904',
                                        'Header' => 'types.h',
                                        'Line' => '42',
                                        'Name' => '__uint32_t',
                                        'PrivateABI' => 1,
                                        'Size' => '4',
                                        'Type' => 'Typedef'
                                      },
                          '158853' => {
                                        'BaseType' => '144002',
                                        'Name' => 'char32_t const*',
                                        'Size' => '8',
                                        'Type' => 'Pointer'
                                      },
                          '160839' => {
                                        'BaseType' => '155291',
                                        'Name' => 'char[16]',
                                        'Size' => '16',
                                        'Type' => 'Array'
                                      },
                          '161042' => {
                                        'BaseType' => '158486',
                                        'Header' => 'stdint-uintn.h',
                                        'Line' => '24',
                                        'Name' => 'uint8_t',
                                        'PrivateABI' => 1,
                                        'Size' => '1',
                                        'Type' => 'Typedef'
                                      },
                          '161054' => {
                                        'BaseType' => '161042',
                                        'Name' => 'uint8_t const',
                                        'Size' => '1',
                                        'Type' => 'Const'
                                      },
                          '161059' => {
                                        'BaseType' => '158510',
                                        'Header' => 'stdint-uintn.h',
                                        'Line' => '25',
                                        'Name' => 'uint16_t',
                                        'PrivateABI' => 1,
                                        'Size' => '2',
                                        'Type' => 'Typedef'
                                      },
                          '161071' => {
                                        'BaseType' => '158539',
                                        'Header' => 'stdint-uintn.h',
                                        'Line' => '26',
                                        'Name' => 'uint32_t',
                                        'PrivateABI' => 1,
                                        'Size' => '4',
                                        'Type' => 'Typedef'
                                      },
                          '162027' => {
                                        'Header' => 'utils.h',
                                        'Line' => '20',
                                        'Memb' => {
                                                    '0' => {
                                                             'name' => 'ptr',
                                                             'offset' => '0',
                                                             'type' => '162072'
                                                           },
                                                    '1' => {
                                                             'name' => 'length',
                                                             'offset' => '8',
                                                             'type' => '155109'
                                                           }
                                                  },
                                        'Name' => 'struct variable_field',
                                        'PrivateABI' => 1,
                                        'Size' => '16',
                                        'Type' => 'Struct'
                                      },
                          '162072' => {
                                        'BaseType' => '161054',
                                        'Name' => 'uint8_t const*',
                                        'Size' => '8',
                                        'Type' => 'Pointer'
                                      },
                          '163121' => {
                                        'BaseType' => '24437',
                                        'Name' => 'struct std::_Rb_tree_node_base*',
                                        'Size' => '8',
                                        'Type' => 'Pointer'
                                      },
                          '163506' => {
                                        'Copied' => 1,
                                        'Header' => 'types.hpp',
                                        'Line' => '20',
                                        'Memb' => {
                                                    '0' => {
                                                             'name' => 'struct_size',
                                                             'offset' => '0',
                                                             'type' => '155109'
                                                           }
                                                  },
                                        'Name' => 'struct pldm::fw_update::GrowableStruct<pldm::fw_update::DescriptorData>',
                                        'NameSpace' => 'pldm::fw_update',
                                        'Size' => '8',
                                        'TParam' => {
                                                      '0' => {
                                                               'key' => 'Derived',
                                                               'type' => '163603'
                                                             }
                                                    },
                                        'Type' => 'Struct'
                                      },
                          '163603' => {
                                        'Base' => {
                                                    '163506' => {
                                                                  'pos' => '0'
                                                                }
                                                  },
                                        'Header' => 'types.hpp',
                                        'Line' => '62',
                                        'Memb' => {
                                                    '0' => {
                                                             'name' => 'vendorDefinedDescriptorTitle',
                                                             'offset' => '8',
                                                             'type' => '29219'
                                                           },
                                                    '1' => {
                                                             'name' => 'data',
                                                             'offset' => '72',
                                                             'type' => '31519'
                                                           }
                                                  },
                                        'Name' => 'struct pldm::fw_update::DescriptorData',
                                        'NameSpace' => 'pldm::fw_update',
                                        'Size' => '72',
                                        'Type' => 'Struct'
                                      },
                          '163805' => {
                                        'Copied' => 1,
                                        'Header' => 'types.hpp',
                                        'Line' => '20',
                                        'Memb' => {
                                                    '0' => {
                                                             'name' => 'struct_size',
                                                             'offset' => '0',
                                                             'type' => '155109'
                                                           }
                                                  },
                                        'Name' => 'struct pldm::fw_update::GrowableStruct<pldm::fw_update::ComponentImageInfo>',
                                        'NameSpace' => 'pldm::fw_update',
                                        'Size' => '8',
                                        'TParam' => {
                                                      '0' => {
                                                               'key' => 'Derived',
                                                               'type' => '163902'
                                                             }
                                                    },
                                        'Type' => 'Struct'
                                      },
                          '163902' => {
                                        'Base' => {
                                                    '163805' => {
                                                                  'pos' => '0'
                                                                }
                                                  },
                                        'Header' => 'types.hpp',
                                        'Line' => '80',
                                        'Memb' => {
                                                    '0' => {
                                                             'name' => 'compClassification',
                                                             'offset' => '8',
                                                             'type' => '161059'
                                                           },
                                                    '1' => {
                                                             'name' => 'compIdentifier',
                                                             'offset' => '16',
                                                             'type' => '161059'
                                                           },
                                                    '2' => {
                                                             'name' => 'compComparisonStamp',
                                                             'offset' => '18',
                                                             'type' => '161071'
                                                           },
                                                    '3' => {
                                                             'name' => 'compOptions',
                                                             'offset' => '22',
                                                             'type' => '35041'
                                                           },
                                                    '4' => {
                                                             'name' => 'reqCompActivationMethod',
                                                             'offset' => '36',
                                                             'type' => '35041'
                                                           },
                                                    '5' => {
                                                             'name' => 'compLocation',
                                                             'offset' => '50',
                                                             'type' => '162027'
                                                           },
                                                    '6' => {
                                                             'name' => 'compVersion',
                                                             'offset' => '72',
                                                             'type' => '26825'
                                                           }
                                                  },
                                        'Name' => 'struct pldm::fw_update::ComponentImageInfo',
                                        'NameSpace' => 'pldm::fw_update',
                                        'Size' => '80',
                                        'Type' => 'Struct'
                                      },
                          '164156' => {
                                        'BaseType' => '163902',
                                        'Name' => 'struct pldm::fw_update::ComponentImageInfo const',
                                        'Size' => '80',
                                        'Type' => 'Const'
                                      },
                          '164161' => {
                                        'Copied' => 1,
                                        'Header' => 'types.hpp',
                                        'Line' => '20',
                                        'Memb' => {
                                                    '0' => {
                                                             'name' => 'struct_size',
                                                             'offset' => '0',
                                                             'type' => '155109'
                                                           }
                                                  },
                                        'Name' => 'struct pldm::fw_update::GrowableStruct<pldm::fw_update::FirmwareDeviceIDRecord>',
                                        'NameSpace' => 'pldm::fw_update',
                                        'Size' => '8',
                                        'TParam' => {
                                                      '0' => {
                                                               'key' => 'Derived',
                                                               'type' => '164258'
                                                             }
                                                    },
                                        'Type' => 'Struct'
                                      },
                          '164258' => {
                                        'Base' => {
                                                    '164161' => {
                                                                  'pos' => '0'
                                                                }
                                                  },
                                        'Header' => 'types.hpp',
                                        'Line' => '109',
                                        'Memb' => {
                                                    '0' => {
                                                             'name' => 'deviceUpdateOptionFlags',
                                                             'offset' => '8',
                                                             'type' => '36411'
                                                           },
                                                    '1' => {
                                                             'name' => 'applicableComponents',
                                                             'offset' => '22',
                                                             'type' => '39641'
                                                           },
                                                    '2' => {
                                                             'name' => 'componentImageSetVersion',
                                                             'offset' => '64',
                                                             'type' => '26825'
                                                           },
                                                    '3' => {
                                                             'name' => 'descriptors',
                                                             'offset' => '114',
                                                             'type' => '51947'
                                                           },
                                                    '4' => {
                                                             'name' => 'firmwareDevicePackageData',
                                                             'offset' => '288',
                                                             'type' => '31519'
                                                           }
                                                  },
                                        'Name' => 'struct pldm::fw_update::FirmwareDeviceIDRecord',
                                        'NameSpace' => 'pldm::fw_update',
                                        'Size' => '144',
                                        'Type' => 'Struct'
                                      },
                          '164541' => {
                                        'BaseType' => '164258',
                                        'Name' => 'struct pldm::fw_update::FirmwareDeviceIDRecord const',
                                        'Size' => '144',
                                        'Type' => 'Const'
                                      },
                          '165382' => {
                                        'BaseType' => '143880',
                                        'Name' => 'unsigned char*',
                                        'Size' => '8',
                                        'Type' => 'Pointer'
                                      },
                          '165657' => {
                                        'BaseType' => '163902',
                                        'Name' => 'struct pldm::fw_update::ComponentImageInfo*',
                                        'Size' => '8',
                                        'Type' => 'Pointer'
                                      },
                          '165662' => {
                                        'BaseType' => '165657',
                                        'Name' => 'struct pldm::fw_update::ComponentImageInfo*const',
                                        'Size' => '8',
                                        'Type' => 'Const'
                                      },
                          '165672' => {
                                        'BaseType' => '164156',
                                        'Name' => 'struct pldm::fw_update::ComponentImageInfo const*',
                                        'Size' => '8',
                                        'Type' => 'Pointer'
                                      },
                          '165677' => {
                                        'BaseType' => '165672',
                                        'Name' => 'struct pldm::fw_update::ComponentImageInfo const*const',
                                        'Size' => '8',
                                        'Type' => 'Const'
                                      },
                          '165682' => {
                                        'BaseType' => '164156',
                                        'Name' => 'struct pldm::fw_update::ComponentImageInfo const&',
                                        'Size' => '8',
                                        'Type' => 'Ref'
                                      },
                          '165742' => {
                                        'BaseType' => '143868',
                                        'Name' => 'unsigned long*',
                                        'Size' => '8',
                                        'Type' => 'Pointer'
                                      },
                          '166344' => {
                                        'BaseType' => '164258',
                                        'Name' => 'struct pldm::fw_update::FirmwareDeviceIDRecord*',
                                        'Size' => '8',
                                        'Type' => 'Pointer'
                                      },
                          '166349' => {
                                        'BaseType' => '166344',
                                        'Name' => 'struct pldm::fw_update::FirmwareDeviceIDRecord*const',
                                        'Size' => '8',
                                        'Type' => 'Const'
                                      },
                          '166354' => {
                                        'BaseType' => '164541',
                                        'Name' => 'struct pldm::fw_update::FirmwareDeviceIDRecord const*',
                                        'Size' => '8',
                                        'Type' => 'Pointer'
                                      },
                          '166359' => {
                                        'BaseType' => '166354',
                                        'Name' => 'struct pldm::fw_update::FirmwareDeviceIDRecord const*const',
                                        'Size' => '8',
                                        'Type' => 'Const'
                                      },
                          '166364' => {
                                        'BaseType' => '164541',
                                        'Name' => 'struct pldm::fw_update::FirmwareDeviceIDRecord const&',
                                        'Size' => '8',
                                        'Type' => 'Ref'
                                      },
                          '168909' => {
                                        'BaseType' => '143880',
                                        'Name' => 'unsigned char[80]',
                                        'Size' => '80',
                                        'Type' => 'Array'
                                      },
                          '169197' => {
                                        'BaseType' => '143995',
                                        'Name' => 'char32_t[1]',
                                        'Size' => '4',
                                        'Type' => 'Array'
                                      }
                        },
          'UndefinedSymbols' => {
                                  'libpldmplus.so.0.14.0' => {
                                                               '_ITM_deregisterTMCloneTable' => 0,
                                                               '_ITM_registerTMCloneTable' => 0,
                                                               '_Unwind_Resume@GCC_3.0' => 0,
                                                               '_ZNKSt13runtime_error4whatEv@GLIBCXX_3.4' => 0,
                                                               '_ZNKSt6locale4nameB5cxx11Ev@GLIBCXX_3.4.21' => 0,
                                                               '_ZNKSt6localeeqERKS_@GLIBCXX_3.4' => 0,
                                                               '_ZNKSt7__cxx118numpunctIcE13decimal_pointEv@GLIBCXX_3.4.21' => 0,
                                                               '_ZNKSt7__cxx118numpunctIcE13thousands_sepEv@GLIBCXX_3.4.21' => 0,
                                                               '_ZNKSt7__cxx118numpunctIcE8groupingEv@GLIBCXX_3.4.21' => 0,
                                                               '_ZNKSt7__cxx118numpunctIcE8truenameEv@GLIBCXX_3.4.21' => 0,
                                                               '_ZNKSt7__cxx118numpunctIcE9falsenameEv@GLIBCXX_3.4.21' => 0,
                                                               '_ZNSt13runtime_errorC2EPKc@GLIBCXX_3.4.21' => 0,
                                                               '_ZNSt13runtime_errorD2Ev@GLIBCXX_3.4' => 0,
                                                               '_ZNSt6locale7classicEv@GLIBCXX_3.4' => 0,
                                                               '_ZNSt6localeC1ERKS_@GLIBCXX_3.4' => 0,
                                                               '_ZNSt6localeC1Ev@GLIBCXX_3.4' => 0,
                                                               '_ZNSt6localeD1Ev@GLIBCXX_3.4' => 0,
                                                               '_ZNSt9exceptionD2Ev@GLIBCXX_3.4' => 0,
                                                               '_ZSt17__throw_bad_allocv@GLIBCXX_3.4' => 0,
                                                               '_ZSt18_Rb_tree_decrementPSt18_Rb_tree_node_base@GLIBCXX_3.4' => 0,
                                                               '_ZSt18_Rb_tree_incrementPSt18_Rb_tree_node_base@GLIBCXX_3.4' => 0,
                                                               '_ZSt19__throw_logic_errorPKc@GLIBCXX_3.4' => 0,
                                                               '_ZSt20__throw_length_errorPKc@GLIBCXX_3.4' => 0,
                                                               '_ZSt20__throw_out_of_rangePKc@GLIBCXX_3.4' => 0,
                                                               '_ZSt21__glibcxx_assert_failPKciS0_S0_@GLIBCXX_3.4.30' => 0,
                                                               '_ZSt24__throw_out_of_range_fmtPKcz@GLIBCXX_3.4.20' => 0,
                                                               '_ZSt28__throw_bad_array_new_lengthv@GLIBCXX_3.4.29' => 0,
                                                               '_ZSt29_Rb_tree_insert_and_rebalancebPSt18_Rb_tree_node_baseS0_RS_@GLIBCXX_3.4' => 0,
                                                               '_ZSt8to_charsPcS_DF128_@GLIBCXX_3.4.31' => 0,
                                                               '_ZSt8to_charsPcS_DF128_St12chars_format@GLIBCXX_3.4.31' => 0,
                                                               '_ZSt8to_charsPcS_DF128_St12chars_formati@GLIBCXX_3.4.31' => 0,
                                                               '_ZSt8to_charsPcS_d@GLIBCXX_3.4.29' => 0,
                                                               '_ZSt8to_charsPcS_dSt12chars_format@GLIBCXX_3.4.29' => 0,
                                                               '_ZSt8to_charsPcS_dSt12chars_formati@GLIBCXX_3.4.29' => 0,
                                                               '_ZSt8to_charsPcS_e@GLIBCXX_3.4.29' => 0,
                                                               '_ZSt8to_charsPcS_eSt12chars_format@GLIBCXX_3.4.29' => 0,
                                                               '_ZSt8to_charsPcS_eSt12chars_formati@GLIBCXX_3.4.29' => 0,
                                                               '_ZSt8to_charsPcS_f@GLIBCXX_3.4.29' => 0,
                                                               '_ZSt8to_charsPcS_fSt12chars_format@GLIBCXX_3.4.29' => 0,
                                                               '_ZSt8to_charsPcS_fSt12chars_formati@GLIBCXX_3.4.29' => 0,
                                                               '_ZSt9use_facetINSt7__cxx118numpunctIcEEERKT_RKSt6locale@GLIBCXX_3.4.21' => 0,
                                                               '_ZTISt13runtime_error@GLIBCXX_3.4' => 0,
                                                               '_ZTISt9exception@GLIBCXX_3.4' => 0,
                                                               '_ZTVN10__cxxabiv117__class_type_infoE@CXXABI_1.3' => 0,
                                                               '_ZTVN10__cxxabiv120__si_class_type_infoE@CXXABI_1.3' => 0,
                                                               '_ZTVSt9exception@GLIBCXX_3.4' => 0,
                                                               '_ZdlPv@GLIBCXX_3.4' => 0,
                                                               '_ZdlPvm@CXXABI_1.3.9' => 0,
                                                               '_Znwm@GLIBCXX_3.4' => 0,
                                                               '__assert_fail@GLIBC_2.2.5' => 0,
                                                               '__cxa_allocate_exception@CXXABI_1.3' => 0,
                                                               '__cxa_begin_catch@CXXABI_1.3' => 0,
                                                               '__cxa_end_catch@CXXABI_1.3' => 0,
                                                               '__cxa_finalize@GLIBC_2.2.5' => 0,
                                                               '__cxa_free_exception@CXXABI_1.3' => 0,
                                                               '__cxa_pure_virtual@CXXABI_1.3' => 0,
                                                               '__cxa_rethrow@CXXABI_1.3' => 0,
                                                               '__cxa_throw@CXXABI_1.3' => 0,
                                                               '__gmon_start__' => 0,
                                                               '__gttf2@GCC_4.3.0' => 0,
                                                               '__gxx_personality_v0@CXXABI_1.3' => 0,
                                                               '__stack_chk_fail@GLIBC_2.4' => 0,
                                                               '__udivti3@GCC_3.0' => 0,
                                                               '__umodti3@GCC_3.0' => 0,
                                                               '__unordtf2@GCC_4.3.0' => 0,
                                                               'decode_pldm_descriptor_from_iter' => 0,
                                                               'decode_pldm_firmware_update_package' => 0,
                                                               'decode_pldm_package_component_image_information_from_iter' => 0,
                                                               'decode_pldm_package_firmware_device_id_record_from_iter' => 0,
                                                               'decode_vendor_defined_descriptor_value' => 0,
                                                               'frexp@GLIBC_2.2.5' => 0,
                                                               'frexpf@GLIBC_2.2.5' => 0,
                                                               'frexpl@GLIBC_2.2.5' => 0,
                                                               'memchr@GLIBC_2.2.5' => 0,
                                                               'memcmp@GLIBC_2.2.5' => 0,
                                                               'memcpy@GLIBC_2.14' => 0,
                                                               'memmove@GLIBC_2.2.5' => 0,
                                                               'memset@GLIBC_2.2.5' => 0,
                                                               'pldm_package_component_image_information_iter_init' => 0,
                                                               'pldm_package_firmware_device_id_record_iter_init' => 0,
                                                               'strlen@GLIBC_2.2.5' => 0,
                                                               'toupper@GLIBC_2.2.5' => 0
                                                             }
                                },
          'WordSize' => '8'
        };
